
Discarded input sections

 .text          0x0000000000000000        0x0 build/asm/header.s.o
 .bss           0x0000000000000000        0x0 build/asm/header.s.o
 .reginfo       0x0000000000000000       0x18 build/asm/header.s.o
 .MIPS.abiflags
                0x0000000000000000       0x18 build/asm/header.s.o
 .pdr           0x0000000000000000        0x0 build/asm/header.s.o
 .gnu.attributes
                0x0000000000000000       0x10 build/asm/header.s.o
 .data          0x0000000000000000        0x0 build/src/asm/entrypoint.s.o
 .reginfo       0x0000000000000000       0x18 build/src/asm/entrypoint.s.o
 .MIPS.abiflags
                0x0000000000000000       0x18 build/src/asm/entrypoint.s.o
 .pdr           0x0000000000000000        0x0 build/src/asm/entrypoint.s.o
 .gnu.attributes
                0x0000000000000000       0x10 build/src/asm/entrypoint.s.o
 .options       0x0000000000000000       0x20 build/src/boot.c.o
 .reginfo       0x0000000000000000       0x18 build/src/boot.c.o
 .mdebug        0x0000000000000000     0x1a84 build/src/boot.c.o
 .data          0x0000000000000000        0x0 build/asm/23D0.s.o
 .reginfo       0x0000000000000000       0x18 build/asm/23D0.s.o
 .MIPS.abiflags
                0x0000000000000000       0x18 build/asm/23D0.s.o
 .pdr           0x0000000000000000        0x0 build/asm/23D0.s.o
 .gnu.attributes
                0x0000000000000000       0x10 build/asm/23D0.s.o
 .data          0x0000000000000000        0x0 build/asm/ultralib/initialize.s.o
 .reginfo       0x0000000000000000       0x18 build/asm/ultralib/initialize.s.o
 .MIPS.abiflags
                0x0000000000000000       0x18 build/asm/ultralib/initialize.s.o
 .pdr           0x0000000000000000        0x0 build/asm/ultralib/initialize.s.o
 .gnu.attributes
                0x0000000000000000       0x10 build/asm/ultralib/initialize.s.o
 .data          0x0000000000000000        0x0 build/asm/ultralib/createthread.s.o
 .reginfo       0x0000000000000000       0x18 build/asm/ultralib/createthread.s.o
 .MIPS.abiflags
                0x0000000000000000       0x18 build/asm/ultralib/createthread.s.o
 .pdr           0x0000000000000000        0x0 build/asm/ultralib/createthread.s.o
 .gnu.attributes
                0x0000000000000000       0x10 build/asm/ultralib/createthread.s.o
 .data          0x0000000000000000        0x0 build/asm/ultralib/startthread.s.o
 .reginfo       0x0000000000000000       0x18 build/asm/ultralib/startthread.s.o
 .MIPS.abiflags
                0x0000000000000000       0x18 build/asm/ultralib/startthread.s.o
 .pdr           0x0000000000000000        0x0 build/asm/ultralib/startthread.s.o
 .gnu.attributes
                0x0000000000000000       0x10 build/asm/ultralib/startthread.s.o
 .data          0x0000000000000000        0x0 build/asm/ultralib/vimgr.s.o
 .reginfo       0x0000000000000000       0x18 build/asm/ultralib/vimgr.s.o
 .MIPS.abiflags
                0x0000000000000000       0x18 build/asm/ultralib/vimgr.s.o
 .pdr           0x0000000000000000        0x0 build/asm/ultralib/vimgr.s.o
 .gnu.attributes
                0x0000000000000000       0x10 build/asm/ultralib/vimgr.s.o
 .data          0x0000000000000000        0x0 build/asm/ultralib/visetmode.s.o
 .reginfo       0x0000000000000000       0x18 build/asm/ultralib/visetmode.s.o
 .MIPS.abiflags
                0x0000000000000000       0x18 build/asm/ultralib/visetmode.s.o
 .pdr           0x0000000000000000        0x0 build/asm/ultralib/visetmode.s.o
 .gnu.attributes
                0x0000000000000000       0x10 build/asm/ultralib/visetmode.s.o
 .data          0x0000000000000000        0x0 build/asm/ultralib/pimgr.s.o
 .reginfo       0x0000000000000000       0x18 build/asm/ultralib/pimgr.s.o
 .MIPS.abiflags
                0x0000000000000000       0x18 build/asm/ultralib/pimgr.s.o
 .pdr           0x0000000000000000        0x0 build/asm/ultralib/pimgr.s.o
 .gnu.attributes
                0x0000000000000000       0x10 build/asm/ultralib/pimgr.s.o
 .data          0x0000000000000000        0x0 build/asm/ultralib/rmonmain.s.o
 .reginfo       0x0000000000000000       0x18 build/asm/ultralib/rmonmain.s.o
 .MIPS.abiflags
                0x0000000000000000       0x18 build/asm/ultralib/rmonmain.s.o
 .pdr           0x0000000000000000        0x0 build/asm/ultralib/rmonmain.s.o
 .gnu.attributes
                0x0000000000000000       0x10 build/asm/ultralib/rmonmain.s.o
 .data          0x0000000000000000        0x0 build/asm/ultralib/setthreadpri.s.o
 .reginfo       0x0000000000000000       0x18 build/asm/ultralib/setthreadpri.s.o
 .MIPS.abiflags
                0x0000000000000000       0x18 build/asm/ultralib/setthreadpri.s.o
 .pdr           0x0000000000000000        0x0 build/asm/ultralib/setthreadpri.s.o
 .gnu.attributes
                0x0000000000000000       0x10 build/asm/ultralib/setthreadpri.s.o
 .data          0x0000000000000000        0x0 build/asm/ultralib/virtualtophysical.s.o
 .reginfo       0x0000000000000000       0x18 build/asm/ultralib/virtualtophysical.s.o
 .MIPS.abiflags
                0x0000000000000000       0x18 build/asm/ultralib/virtualtophysical.s.o
 .pdr           0x0000000000000000        0x0 build/asm/ultralib/virtualtophysical.s.o
 .gnu.attributes
                0x0000000000000000       0x10 build/asm/ultralib/virtualtophysical.s.o
 .data          0x0000000000000000        0x0 build/asm/9B250.s.o
 .reginfo       0x0000000000000000       0x18 build/asm/9B250.s.o
 .MIPS.abiflags
                0x0000000000000000       0x18 build/asm/9B250.s.o
 .pdr           0x0000000000000000        0x0 build/asm/9B250.s.o
 .gnu.attributes
                0x0000000000000000       0x10 build/asm/9B250.s.o
 .text          0x0000000000000000        0x0 build/asm/data/BB6B0.data.s.o
 .bss           0x0000000000000000        0x0 build/asm/data/BB6B0.data.s.o
 .reginfo       0x0000000000000000       0x18 build/asm/data/BB6B0.data.s.o
 .MIPS.abiflags
                0x0000000000000000       0x18 build/asm/data/BB6B0.data.s.o
 .pdr           0x0000000000000000        0x0 build/asm/data/BB6B0.data.s.o
 .gnu.attributes
                0x0000000000000000       0x10 build/asm/data/BB6B0.data.s.o
 .text          0x0000000000000000        0x0 build/asm/data/ultralib/vitbl.data.s.o
 .bss           0x0000000000000000        0x0 build/asm/data/ultralib/vitbl.data.s.o
 .reginfo       0x0000000000000000       0x18 build/asm/data/ultralib/vitbl.data.s.o
 .MIPS.abiflags
                0x0000000000000000       0x18 build/asm/data/ultralib/vitbl.data.s.o
 .pdr           0x0000000000000000        0x0 build/asm/data/ultralib/vitbl.data.s.o
 .gnu.attributes
                0x0000000000000000       0x10 build/asm/data/ultralib/vitbl.data.s.o

Memory Configuration

Name             Origin             Length             Attributes
*default*        0x0000000000000000 0xffffffffffffffff

Linker script and memory map

LOAD build/asm/header.s.o
LOAD build/assets/boot.bin.o
LOAD build/src/asm/entrypoint.s.o
LOAD build/src/boot.c.o
LOAD build/asm/23D0.s.o
LOAD build/asm/ultralib/initialize.s.o
LOAD build/asm/ultralib/createthread.s.o
LOAD build/asm/ultralib/startthread.s.o
LOAD build/asm/ultralib/vimgr.s.o
LOAD build/asm/ultralib/visetmode.s.o
LOAD build/asm/ultralib/pimgr.s.o
LOAD build/asm/ultralib/rmonmain.s.o
LOAD build/asm/ultralib/setthreadpri.s.o
LOAD build/asm/ultralib/virtualtophysical.s.o
LOAD build/asm/9B250.s.o
LOAD build/asm/data/BB6B0.data.s.o
LOAD build/asm/data/ultralib/vitbl.data.s.o
LOAD build/assets/EB0D0.bin.o
LOAD build/assets/trailer.bin.o
                0x0000000000800000                __romPos = 0x0
                0x0000000000000000                _gp = 0x0
                0x0000000000000000                header_ROM_START = __romPos
                0x0000000000000000                header_VRAM = ADDR (.header)

.header         0x0000000000000000       0x40
                0x0000000000000000                header_DATA_START = .
                0x0000000000000000                header_s = .
 build/asm/header.s.o(.data)
 .data          0x0000000000000000       0x40 build/asm/header.s.o
                0x0000000000000040                header_DATA_END = .
                0x0000000000000040                header_DATA_SIZE = ABSOLUTE ((header_DATA_END - header_DATA_START))
                0x0000000000800000                __romPos = (__romPos + SIZEOF (.header))
                0x0000000000000040                header_ROM_END = __romPos
                0x0000000000000040                header_VRAM_END = .
                0x0000000000000040                boot_ROM_START = __romPos
                0x00000000a4000040                boot_VRAM = ADDR (.boot)

.boot           0x00000000a4000040      0xfc0 load address 0x0000000000000040
                0x00000000a4000040                boot_DATA_START = .
                0x00000000a4000040                boot_bin = .
 build/assets/boot.bin.o(.data)
 .data          0x00000000a4000040      0xfc0 build/assets/boot.bin.o
                0x00000000a4000040                _binary_assets_boot_bin_start
                0x00000000a4001000                _binary_assets_boot_bin_end
                0x00000000a4001000                boot_DATA_END = .
                0x0000000000000fc0                boot_DATA_SIZE = ABSOLUTE ((boot_DATA_END - boot_DATA_START))
                0x0000000000800000                __romPos = (__romPos + SIZEOF (.boot))
                0x0000000000001000                boot_ROM_END = __romPos
                0x00000000a4001000                boot_VRAM_END = .
                0x0000000000001000                main_ROM_START = __romPos
                0x0000000080000400                main_VRAM = ADDR (.main)

.main           0x0000000080000400   0x7e9fd0 load address 0x0000000000001000
                0x0000000080000400                main_TEXT_START = .
 build/src/asm/entrypoint.s.o(.text)
 .text          0x0000000080000400       0x50 build/src/asm/entrypoint.s.o
                0x0000000080000400                func_80000400
 build/src/boot.c.o(.text)
 .text          0x0000000080000450     0x1380 build/src/boot.c.o
                0x0000000080000450                func_80000450
                0x00000000800006bc                boot
                0x0000000080000718                Thread_IdleProc
                0x00000000800008e0                func_800008E0
                0x0000000080000a84                func_80000A84
                0x0000000080000c20                Thread_MainProc
                0x0000000080000fe0                func_80000FE0
                0x0000000080001098                func_80001098
                0x00000000800011f0                func_800011F0
                0x0000000080001264                func_80001264
                0x0000000080001290                func_80001290
                0x00000000800012f0                func_800012F0
                0x000000008000147c                func_8000147C
                0x0000000080001670                func_80001670
                0x00000000800016a4                .L800016A4
                0x00000000800016b4                .L800016B4
                0x00000000800016c4                .L800016C4
                0x00000000800016d4                .L800016D4
                0x00000000800016e4                .L800016E4
                0x00000000800016f4                .L800016F4
                0x0000000080001704                .L80001704
                0x0000000080001714                .L80001714
                0x0000000080001724                .L80001724
                0x0000000080001734                .L80001734
                0x0000000080001744                .L80001744
                0x0000000080001754                .L80001754
                0x0000000080001764                .L80001764
                0x0000000080001774                .L80001774
                0x000000008000177c                .L8000177C
                0x000000008000178c                func_8000178C
 build/asm/23D0.s.o(.text)
 .text          0x00000000800017d0    0x97780 build/asm/23D0.s.o
                0x00000000800017d0                func_800017D0
                0x0000000080001988                func_80001988
                0x0000000080001a80                func_80001A80
                0x0000000080001b38                func_80001B38
                0x00000000800020bc                func_800020BC
                0x0000000080002114                func_80002114
                0x00000000800028d0                func_800028D0
                0x00000000800029ec                func_800029EC
                0x0000000080002a2c                func_80002A2C
                0x0000000080002ae0                func_80002AE0
                0x0000000080002b50                func_80002B50
                0x0000000080002f48                func_80002F48
                0x0000000080003020                func_80003020
                0x00000000800032c4                func_800032C4
                0x000000008000334c                func_8000334C
                0x0000000080003380                func_80003380
                0x00000000800033b4                func_800033B4
                0x00000000800033f0                func_800033F0
                0x0000000080003430                func_80003430
                0x0000000080003474                func_80003474
                0x00000000800034b8                func_800034B8
                0x00000000800034fc                func_800034FC
                0x0000000080003540                func_80003540
                0x00000000800035f8                func_800035F8
                0x00000000800036c8                func_800036C8
                0x0000000080003778                func_80003778
                0x0000000080003828                func_80003828
                0x00000000800038c8                func_800038C8
                0x0000000080003980                func_80003980
                0x00000000800039b8                func_800039B8
                0x0000000080003a10                func_80003A10
                0x0000000080003a38                func_80003A38
                0x0000000080003a64                func_80003A64
                0x0000000080003ad4                func_80003AD4
                0x0000000080003d64                func_80003D64
                0x0000000080003f24                func_80003F24
                0x00000000800040a0                func_800040A0
                0x0000000080004380                func_80004380
                0x00000000800045f8                func_800045F8
                0x0000000080004648                func_80004648
                0x00000000800046fc                func_800046FC
                0x0000000080004738                func_80004738
                0x000000008000474c                func_8000474C
                0x0000000080004760                func_80004760
                0x000000008000477c                func_8000477C
                0x00000000800047b0                func_800047B0
                0x0000000080004804                func_80004804
                0x0000000080004910                func_80004910
                0x0000000080004e70                func_80004E70
                0x0000000080004e90                func_80004E90
                0x0000000080004f08                func_80004F08
                0x0000000080004f24                func_80004F24
                0x0000000080004ffc                func_80004FFC
                0x00000000800050b4                func_800050B4
                0x0000000080005188                func_80005188
                0x000000008000565c                func_8000565C
                0x0000000080005770                func_80005770
                0x0000000080005828                func_80005828
                0x0000000080005860                func_80005860
                0x00000000800058e0                func_800058E0
                0x00000000800059a4                func_800059A4
                0x0000000080005b68                func_80005B68
                0x0000000080005c3c                func_80005C3C
                0x000000008000607c                func_8000607C
                0x0000000080006360                func_80006360
                0x0000000080006b1c                func_80006B1C
                0x0000000080006b9c                func_80006B9C
                0x0000000080006cc8                func_80006CC8
                0x0000000080006df4                func_80006DF4
                0x0000000080006e60                func_80006E60
                0x0000000080006edc                func_80006EDC
                0x00000000800072a4                func_800072A4
                0x00000000800073cc                func_800073CC
                0x0000000080007578                func_80007578
                0x00000000800075a8                func_800075A8
                0x00000000800076f0                func_800076F0
                0x00000000800078a4                func_800078A4
                0x0000000080007a90                func_80007A90
                0x0000000080007abc                func_80007ABC
                0x0000000080007bc0                func_80007BC0
                0x0000000080007c8c                func_80007C8C
                0x0000000080007cc4                .L80007CC4
                0x0000000080007d3c                .L80007D3C
                0x0000000080008200                .L80008200
                0x00000000800082f8                .L800082F8
                0x00000000800083f0                .L800083F0
                0x0000000080008498                .L80008498
                0x0000000080008510                .L80008510
                0x0000000080008a5c                .L80008A5C
                0x0000000080008a8c                .L80008A8C
                0x0000000080008abc                .L80008ABC
                0x0000000080008aec                .L80008AEC
                0x0000000080008b1c                .L80008B1C
                0x0000000080008b4c                .L80008B4C
                0x0000000080008df0                .L80008DF0
                0x0000000080008fa8                .L80008FA8
                0x00000000800091b0                .L800091B0
                0x00000000800095bc                .L800095BC
                0x000000008000966c                .L8000966C
                0x00000000800098a8                .L800098A8
                0x000000008000992c                .L8000992C
                0x0000000080009940                func_80009940
                0x0000000080009be0                func_80009BE0
                0x0000000080009be8                func_80009BE8
                0x000000008000d240                .L8000D240
                0x000000008000d264                .L8000D264
                0x000000008000d288                .L8000D288
                0x000000008000d2ac                .L8000D2AC
                0x000000008000d318                .L8000D318
                0x000000008000d368                .L8000D368
                0x000000008000dd6c                func_8000DD6C
                0x000000008000ea88                func_8000EA88
                0x000000008000f290                func_8000F290
                0x000000008000fbf4                func_8000FBF4
                0x0000000080010898                func_80010898
                0x00000000800109b0                func_800109B0
                0x0000000080010a10                func_80010A10
                0x0000000080010c20                func_80010C20
                0x000000008001107c                func_8001107C
                0x00000000800119ac                func_800119AC
                0x0000000080011a18                func_80011A18
                0x0000000080011a9c                func_80011A9C
                0x0000000080011b30                func_80011B30
                0x0000000080011c58                func_80011C58
                0x0000000080011d6c                func_80011D6C
                0x0000000080011da4                func_80011DA4
                0x0000000080011ddc                func_80011DDC
                0x0000000080011e48                func_80011E48
                0x0000000080011f44                func_80011F44
                0x0000000080012044                func_80012044
                0x00000000800120c8                func_800120C8
                0x00000000800121d0                func_800121D0
                0x0000000080012288                func_80012288
                0x00000000800122b0                func_800122B0
                0x00000000800123ac                func_800123AC
                0x0000000080012418                func_80012418
                0x0000000080012438                func_80012438
                0x0000000080012634                func_80012634
                0x0000000080012830                func_80012830
                0x00000000800128e0                func_800128E0
                0x00000000800128f0                func_800128F0
                0x0000000080012944                func_80012944
                0x0000000080012970                func_80012970
                0x00000000800129c8                func_800129C8
                0x0000000080012a24                func_80012A24
                0x0000000080012a58                func_80012A58
                0x0000000080012ab4                func_80012AB4
                0x0000000080012b28                func_80012B28
                0x0000000080012b88                func_80012B88
                0x0000000080012c04                func_80012C04
                0x0000000080012c50                func_80012C50
                0x0000000080012cd4                func_80012CD4
                0x0000000080012df0                func_80012DF0
                0x0000000080012f98                func_80012F98
                0x000000008001303c                .L8001303C
                0x0000000080013084                .L80013084
                0x00000000800132a0                .L800132A0
                0x0000000080013d88                .L80013D88
                0x0000000080013eb8                .L80013EB8
                0x0000000080013fa8                .L80013FA8
                0x0000000080014278                .L80014278
                0x00000000800146f8                .L800146F8
                0x0000000080014af0                func_80014AF0
                0x0000000080014c44                func_80014C44
                0x0000000080014f14                func_80014F14
                0x0000000080014fd0                func_80014FD0
                0x0000000080015094                func_80015094
                0x00000000800150fc                func_800150FC
                0x0000000080015174                func_80015174
                0x00000000800151d8                func_800151D8
                0x0000000080015250                func_80015250
                0x00000000800152c8                func_800152C8
                0x0000000080015330                func_80015330
                0x00000000800153a8                func_800153A8
                0x0000000080015418                func_80015418
                0x0000000080015490                func_80015490
                0x00000000800154f4                func_800154F4
                0x000000008001556c                func_8001556C
                0x00000000800155e4                func_800155E4
                0x000000008001564c                func_8001564C
                0x00000000800156c4                func_800156C4
                0x0000000080015b28                func_80015B28
                0x00000000800160ec                func_800160EC
                0x0000000080016cb4                func_80016CB4
                0x0000000080016d94                func_80016D94
                0x0000000080016e70                func_80016E70
                0x0000000080016ee4                .L80016EE4
                0x0000000080016f08                .L80016F08
                0x0000000080016f2c                .L80016F2C
                0x0000000080016f50                .L80016F50
                0x0000000080016f74                .L80016F74
                0x0000000080016f98                .L80016F98
                0x0000000080016fbc                .L80016FBC
                0x0000000080016fe0                .L80016FE0
                0x0000000080017004                .L80017004
                0x0000000080017028                .L80017028
                0x000000008001704c                .L8001704C
                0x0000000080017070                .L80017070
                0x0000000080017094                .L80017094
                0x00000000800170b8                .L800170B8
                0x00000000800170dc                .L800170DC
                0x0000000080017100                .L80017100
                0x0000000080017124                .L80017124
                0x0000000080017148                .L80017148
                0x000000008001716c                .L8001716C
                0x0000000080017190                .L80017190
                0x00000000800171b4                .L800171B4
                0x00000000800171d8                .L800171D8
                0x00000000800171fc                .L800171FC
                0x0000000080017220                .L80017220
                0x0000000080017244                .L80017244
                0x0000000080017268                .L80017268
                0x000000008001728c                .L8001728C
                0x00000000800172b0                .L800172B0
                0x00000000800172d4                .L800172D4
                0x00000000800172f8                .L800172F8
                0x000000008001731c                .L8001731C
                0x0000000080017340                .L80017340
                0x0000000080017364                .L80017364
                0x0000000080017388                .L80017388
                0x00000000800173ac                .L800173AC
                0x00000000800173d0                .L800173D0
                0x00000000800173f4                .L800173F4
                0x0000000080017418                .L80017418
                0x000000008001743c                .L8001743C
                0x0000000080017460                .L80017460
                0x0000000080017484                .L80017484
                0x00000000800174a8                .L800174A8
                0x00000000800174cc                .L800174CC
                0x00000000800174f0                .L800174F0
                0x000000008001751c                func_8001751C
                0x0000000080017680                func_80017680
                0x00000000800176f8                func_800176F8
                0x0000000080017770                func_80017770
                0x0000000080017800                func_80017800
                0x000000008001783c                .L8001783C
                0x0000000080017950                .L80017950
                0x00000000800179d0                .L800179D0
                0x00000000800179f8                .L800179F8
                0x0000000080017b2c                .L80017B2C
                0x0000000080017bac                .L80017BAC
                0x0000000080017bd4                .L80017BD4
                0x0000000080017d18                .L80017D18
                0x0000000080017d98                .L80017D98
                0x0000000080017dc0                .L80017DC0
                0x0000000080017e40                .L80017E40
                0x0000000080017ec0                .L80017EC0
                0x0000000080017f08                func_80017F08
                0x0000000080017fe8                func_80017FE8
                0x000000008001809c                func_8001809C
                0x00000000800180fc                func_800180FC
                0x000000008001817c                func_8001817C
                0x00000000800181b8                .L800181B8
                0x00000000800181c8                .L800181C8
                0x000000008001821c                .L8001821C
                0x0000000080018238                .L80018238
                0x0000000080018254                .L80018254
                0x0000000080018270                .L80018270
                0x0000000080018294                .L80018294
                0x00000000800182b8                .L800182B8
                0x00000000800182dc                .L800182DC
                0x0000000080018374                .L80018374
                0x0000000080018510                .L80018510
                0x000000008001855c                .L8001855C
                0x0000000080018764                .L80018764
                0x00000000800187b4                .L800187B4
                0x00000000800187f4                .L800187F4
                0x000000008001882c                .L8001882C
                0x000000008001886c                .L8001886C
                0x00000000800188bc                .L800188BC
                0x00000000800188cc                func_800188CC
                0x0000000080018e00                func_80018E00
                0x00000000800191b8                func_800191B8
                0x0000000080019520                func_80019520
                0x0000000080019688                func_80019688
                0x00000000800197a0                func_800197A0
                0x000000008001983c                func_8001983C
                0x00000000800198b4                func_800198B4
                0x00000000800199dc                func_800199DC
                0x0000000080019a80                func_80019A80
                0x0000000080019e48                func_80019E48
                0x0000000080019ec4                func_80019EC4
                0x0000000080019f04                func_80019F04
                0x0000000080019fb4                func_80019FB4
                0x000000008001a15c                func_8001A15C
                0x000000008001a254                func_8001A254
                0x000000008001a584                func_8001A584
                0x000000008001a758                func_8001A758
                0x000000008001a7e0                func_8001A7E0
                0x000000008001a838                func_8001A838
                0x000000008001a890                func_8001A890
                0x000000008001a96c                func_8001A96C
                0x000000008001aca8                func_8001ACA8
                0x000000008001b004                func_8001B004
                0x000000008001b02c                func_8001B02C
                0x000000008001b078                func_8001B078
                0x000000008001b0f8                .L8001B0F8
                0x000000008001b100                .L8001B100
                0x000000008001b10c                .L8001B10C
                0x000000008001b118                .L8001B118
                0x000000008001b124                .L8001B124
                0x000000008001b130                .L8001B130
                0x000000008001b13c                .L8001B13C
                0x000000008001b1a0                func_8001B1A0
                0x000000008001b1f8                func_8001B1F8
                0x000000008001b23c                func_8001B23C
                0x000000008001b244                func_8001B244
                0x000000008001b2f4                func_8001B2F4
                0x000000008001b3d0                func_8001B3D0
                0x000000008001b460                func_8001B460
                0x000000008001b514                .L8001B514
                0x000000008001b540                .L8001B540
                0x000000008001b6c0                .L8001B6C0
                0x000000008001b904                .L8001B904
                0x000000008001ba38                .L8001BA38
                0x000000008001ba64                .L8001BA64
                0x000000008001bb5c                .L8001BB5C
                0x000000008001bbb4                .L8001BBB4
                0x000000008001bc4c                .L8001BC4C
                0x000000008001bc5c                .L8001BC5C
                0x000000008001bcf4                .L8001BCF4
                0x000000008001be88                .L8001BE88
                0x000000008001c144                .L8001C144
                0x000000008001c1a4                .L8001C1A4
                0x000000008001c23c                .L8001C23C
                0x000000008001c2a0                .L8001C2A0
                0x000000008001c3c4                .L8001C3C4
                0x000000008001c424                .L8001C424
                0x000000008001c584                .L8001C584
                0x000000008001c5e4                .L8001C5E4
                0x000000008001c694                .L8001C694
                0x000000008001c6f0                .L8001C6F0
                0x000000008001c77c                .L8001C77C
                0x000000008001c794                .L8001C794
                0x000000008001c7a4                func_8001C7A4
                0x000000008001c7f0                func_8001C7F0
                0x000000008001c834                func_8001C834
                0x000000008001c8b0                func_8001C8B0
                0x000000008001c97c                func_8001C97C
                0x000000008001ca68                func_8001CA68
                0x000000008001caa8                func_8001CAA8
                0x000000008001cb6c                func_8001CB6C
                0x000000008001cc34                func_8001CC34
                0x000000008001cc8c                func_8001CC8C
                0x000000008001cd30                func_8001CD30
                0x000000008001ce04                func_8001CE04
                0x000000008001cf14                func_8001CF14
                0x000000008001cfdc                func_8001CFDC
                0x000000008001d040                func_8001D040
                0x000000008001d0a4                func_8001D0A4
                0x000000008001d240                func_8001D240
                0x000000008001d5b8                func_8001D5B8
                0x000000008001d60c                func_8001D60C
                0x000000008001d654                func_8001D654
                0x000000008001d6f0                .L8001D6F0
                0x000000008001d848                .L8001D848
                0x000000008001d900                .L8001D900
                0x000000008001da2c                .L8001DA2C
                0x000000008001da90                .L8001DA90
                0x000000008001dacc                .L8001DACC
                0x000000008001daf4                .L8001DAF4
                0x000000008001db84                .L8001DB84
                0x000000008001dba0                func_8001DBA0
                0x000000008001dc60                func_8001DC60
                0x000000008001de30                func_8001DE30
                0x000000008001e2d0                func_8001E2D0
                0x000000008001e5e0                func_8001E5E0
                0x000000008001e6f4                func_8001E6F4
                0x000000008001e808                func_8001E808
                0x000000008001e814                func_8001E814
                0x000000008001e8e4                func_8001E8E4
                0x000000008001e964                func_8001E964
                0x000000008001e9dc                func_8001E9DC
                0x000000008001eadc                func_8001EADC
                0x000000008001eb8c                func_8001EB8C
                0x000000008001ec1c                func_8001EC1C
                0x000000008001f88c                func_8001F88C
                0x000000008001fa78                func_8001FA78
                0x000000008001fca0                func_8001FCA0
                0x000000008001feb0                func_8001FEB0
                0x000000008001ff28                func_8001FF28
                0x000000008001ff30                func_8001FF30
                0x000000008001ff50                func_8001FF50
                0x000000008001ffa0                func_8001FFA0
                0x000000008001ffa8                func_8001FFA8
                0x0000000080020024                func_80020024
                0x000000008002034c                func_8002034C
                0x00000000800205dc                func_800205DC
                0x00000000800207dc                func_800207DC
                0x0000000080020844                func_80020844
                0x00000000800208d4                func_800208D4
                0x000000008002092c                func_8002092C
                0x0000000080020a54                func_80020A54
                0x0000000080020a90                func_80020A90
                0x0000000080020ac4                .L80020AC4
                0x0000000080020b60                .L80020B60
                0x0000000080020d6c                .L80020D6C
                0x0000000080020e44                .L80020E44
                0x0000000080020e54                .L80020E54
                0x0000000080020ecc                .L80020ECC
                0x0000000080020ef0                .L80020EF0
                0x0000000080020f94                .L80020F94
                0x0000000080021034                func_80021034
                0x0000000080021098                func_80021098
                0x0000000080021270                func_80021270
                0x0000000080021620                func_80021620
                0x0000000080021658                func_80021658
                0x0000000080021660                func_80021660
                0x0000000080021668                func_80021668
                0x000000008002167c                func_8002167C
                0x0000000080021690                func_80021690
                0x000000008002170c                func_8002170C
                0x00000000800218fc                func_800218FC
                0x0000000080022470                func_80022470
                0x0000000080022d10                func_80022D10
                0x0000000080022d88                func_80022D88
                0x0000000080022f48                func_80022F48
                0x00000000800230b8                func_800230B8
                0x000000008002312c                func_8002312C
                0x0000000080023168                func_80023168
                0x00000000800232a4                func_800232A4
                0x00000000800235e0                func_800235E0
                0x00000000800235f4                func_800235F4
                0x0000000080023668                func_80023668
                0x0000000080023670                func_80023670
                0x0000000080023678                func_80023678
                0x00000000800236a0                func_800236A0
                0x0000000080023798                func_80023798
                0x00000000800237f0                func_800237F0
                0x0000000080023894                func_80023894
                0x0000000080023948                func_80023948
                0x0000000080023968                func_80023968
                0x0000000080023a08                func_80023A08
                0x0000000080023a34                func_80023A34
                0x0000000080023aa4                func_80023AA4
                0x0000000080023ac4                func_80023AC4
                0x0000000080023acc                func_80023ACC
                0x0000000080023afc                func_80023AFC
                0x0000000080023bc0                func_80023BC0
                0x0000000080023bf8                func_80023BF8
                0x0000000080023c00                func_80023C00
                0x0000000080023c18                func_80023C18
                0x0000000080023d48                func_80023D48
                0x0000000080023d70                func_80023D70
                0x0000000080023d98                func_80023D98
                0x0000000080023db4                func_80023DB4
                0x0000000080023dbc                func_80023DBC
                0x0000000080023df0                func_80023DF0
                0x0000000080023df8                func_80023DF8
                0x0000000080023e14                func_80023E14
                0x0000000080023e1c                func_80023E1C
                0x0000000080023e38                func_80023E38
                0x0000000080023e40                func_80023E40
                0x0000000080023e48                func_80023E48
                0x0000000080023e6c                func_80023E6C
                0x0000000080023e74                func_80023E74
                0x0000000080023e98                func_80023E98
                0x0000000080023eb4                func_80023EB4
                0x0000000080023edc                func_80023EDC
                0x0000000080023f5c                func_80023F5C
                0x0000000080024004                func_80024004
                0x0000000080024074                func_80024074
                0x00000000800240e8                func_800240E8
                0x0000000080024428                func_80024428
                0x00000000800244f8                func_800244F8
                0x0000000080024528                func_80024528
                0x0000000080024584                func_80024584
                0x00000000800245ac                func_800245AC
                0x00000000800245b4                func_800245B4
                0x00000000800245f0                func_800245F0
                0x00000000800245f8                func_800245F8
                0x0000000080024600                func_80024600
                0x0000000080024624                func_80024624
                0x0000000080024668                func_80024668
                0x0000000080024854                func_80024854
                0x000000008002488c                func_8002488C
                0x00000000800249b8                func_800249B8
                0x0000000080024d5c                func_80024D5C
                0x0000000080024d6c                func_80024D6C
                0x0000000080024da8                func_80024DA8
                0x0000000080024dd8                func_80024DD8
                0x0000000080024e18                func_80024E18
                0x0000000080024ea0                func_80024EA0
                0x0000000080025084                func_80025084
                0x000000008002508c                func_8002508C
                0x0000000080025094                func_80025094
                0x0000000080025114                func_80025114
                0x000000008002515c                func_8002515C
                0x0000000080025184                func_80025184
                0x00000000800251cc                func_800251CC
                0x00000000800251e8                func_800251E8
                0x0000000080025254                func_80025254
                0x00000000800252bc                func_800252BC
                0x00000000800252f8                func_800252F8
                0x0000000080025380                func_80025380
                0x00000000800253a8                func_800253A8
                0x00000000800253b0                func_800253B0
                0x0000000080025578                func_80025578
                0x00000000800255b4                func_800255B4
                0x00000000800258c8                .L800258C8
                0x0000000080025914                .L80025914
                0x0000000080025950                .L80025950
                0x0000000080025994                .L80025994
                0x00000000800259d0                .L800259D0
                0x0000000080025a0c                .L80025A0C
                0x0000000080025a3c                .L80025A3C
                0x0000000080025a6c                .L80025A6C
                0x0000000080025a88                .L80025A88
                0x0000000080025ac4                .L80025AC4
                0x0000000080025b04                .L80025B04
                0x0000000080025b7c                func_80025B7C
                0x0000000080025bfc                func_80025BFC
                0x0000000080025c38                func_80025C38
                0x0000000080025e00                func_80025E00
                0x0000000080025e6c                func_80025E6C
                0x0000000080025ec4                func_80025EC4
                0x0000000080025f70                func_80025F70
                0x000000008002601c                func_8002601C
                0x00000000800260c8                func_800260C8
                0x0000000080026174                func_80026174
                0x0000000080026220                func_80026220
                0x0000000080026428                func_80026428
                0x0000000080026494                func_80026494
                0x000000008002653c                func_8002653C
                0x0000000080026584                func_80026584
                0x00000000800265fc                func_800265FC
                0x0000000080026694                func_80026694
                0x000000008002670c                func_8002670C
                0x0000000080026784                func_80026784
                0x00000000800267fc                func_800267FC
                0x0000000080026874                func_80026874
                0x000000008002694c                func_8002694C
                0x0000000080026a18                func_80026A18
                0x0000000080026b04                func_80026B04
                0x0000000080026bd0                func_80026BD0
                0x0000000080026c9c                func_80026C9C
                0x0000000080026d88                func_80026D88
                0x0000000080026e60                func_80026E60
                0x0000000080026f2c                func_80026F2C
                0x0000000080027018                func_80027018
                0x00000000800270e4                func_800270E4
                0x00000000800271b0                func_800271B0
                0x000000008002729c                func_8002729C
                0x0000000080027370                func_80027370
                0x00000000800273fc                func_800273FC
                0x0000000080027468                func_80027468
                0x0000000080027510                func_80027510
                0x0000000080027588                func_80027588
                0x0000000080027644                func_80027644
                0x00000000800276dc                func_800276DC
                0x0000000080027800                func_80027800
                0x00000000800278e8                func_800278E8
                0x0000000080027a44                func_80027A44
                0x0000000080027a88                func_80027A88
                0x0000000080027ac8                func_80027AC8
                0x0000000080027b28                func_80027B28
                0x0000000080027c40                func_80027C40
                0x0000000080027d94                func_80027D94
                0x000000008002801c                func_8002801C
                0x0000000080028150                func_80028150
                0x0000000080028260                func_80028260
                0x00000000800282f0                func_800282F0
                0x0000000080028380                func_80028380
                0x00000000800283bc                func_800283BC
                0x00000000800284b0                func_800284B0
                0x00000000800284b8                func_800284B8
                0x0000000080028528                func_80028528
                0x000000008002854c                func_8002854C
                0x00000000800285e4                func_800285E4
                0x0000000080028638                func_80028638
                0x000000008002865c                func_8002865C
                0x0000000080028680                func_80028680
                0x00000000800286a4                func_800286A4
                0x00000000800286c8                func_800286C8
                0x0000000080028704                func_80028704
                0x0000000080028744                func_80028744
                0x000000008002877c                func_8002877C
                0x000000008002884c                func_8002884C
                0x00000000800288ec                func_800288EC
                0x0000000080028980                func_80028980
                0x00000000800289cc                func_800289CC
                0x00000000800289e4                func_800289E4
                0x0000000080028ae8                func_80028AE8
                0x0000000080028b1c                func_80028B1C
                0x0000000080028b90                func_80028B90
                0x0000000080028c00                func_80028C00
                0x0000000080028c08                func_80028C08
                0x0000000080028c80                func_80028C80
                0x0000000080028ce8                func_80028CE8
                0x0000000080028dac                func_80028DAC
                0x0000000080028e1c                func_80028E1C
                0x0000000080029044                func_80029044
                0x0000000080029134                func_80029134
                0x00000000800291ac                func_800291AC
                0x00000000800294e0                func_800294E0
                0x00000000800295d8                func_800295D8
                0x0000000080029600                func_80029600
                0x0000000080029628                func_80029628
                0x0000000080029650                func_80029650
                0x0000000080029678                func_80029678
                0x0000000080029798                func_80029798
                0x000000008002981c                func_8002981C
                0x0000000080029860                func_80029860
                0x00000000800298d0                func_800298D0
                0x000000008002995c                func_8002995C
                0x00000000800299b0                func_800299B0
                0x0000000080029a7c                func_80029A7C
                0x0000000080029b00                func_80029B00
                0x0000000080029b74                func_80029B74
                0x0000000080029bb4                func_80029BB4
                0x0000000080029c44                func_80029C44
                0x0000000080029cc0                func_80029CC0
                0x0000000080029d58                func_80029D58
                0x0000000080029dec                func_80029DEC
                0x0000000080029e48                func_80029E48
                0x0000000080029f00                func_80029F00
                0x0000000080029fb8                func_80029FB8
                0x000000008002a018                func_8002A018
                0x000000008002a090                func_8002A090
                0x000000008002a0c4                func_8002A0C4
                0x000000008002a118                func_8002A118
                0x000000008002a170                func_8002A170
                0x000000008002a1c8                func_8002A1C8
                0x000000008002a200                func_8002A200
                0x000000008002a258                func_8002A258
                0x000000008002a2b0                func_8002A2B0
                0x000000008002a320                func_8002A320
                0x000000008002a404                func_8002A404
                0x000000008002a464                func_8002A464
                0x000000008002a4c4                func_8002A4C4
                0x000000008002a4fc                func_8002A4FC
                0x000000008002a57c                func_8002A57C
                0x000000008002a658                func_8002A658
                0x000000008002a898                func_8002A898
                0x000000008002a900                func_8002A900
                0x000000008002a990                func_8002A990
                0x000000008002aa20                func_8002AA20
                0x000000008002abe4                func_8002ABE4
                0x000000008002ac30                func_8002AC30
                0x000000008002ac7c                func_8002AC7C
                0x000000008002acfc                func_8002ACFC
                0x000000008002ad7c                func_8002AD7C
                0x000000008002ae44                func_8002AE44
                0x000000008002aeb4                func_8002AEB4
                0x000000008002aef8                func_8002AEF8
                0x000000008002af7c                func_8002AF7C
                0x000000008002b010                func_8002B010
                0x000000008002b140                func_8002B140
                0x000000008002b1d0                func_8002B1D0
                0x000000008002b25c                func_8002B25C
                0x000000008002b2d0                func_8002B2D0
                0x000000008002b330                func_8002B330
                0x000000008002b400                func_8002B400
                0x000000008002b4d0                func_8002B4D0
                0x000000008002b5a0                func_8002B5A0
                0x000000008002b6e8                func_8002B6E8
                0x000000008002b7b8                func_8002B7B8
                0x000000008002b7f4                func_8002B7F4
                0x000000008002b82c                func_8002B82C
                0x000000008002b8f0                func_8002B8F0
                0x000000008002b954                func_8002B954
                0x000000008002b9d8                func_8002B9D8
                0x000000008002bacc                func_8002BACC
                0x000000008002bb04                func_8002BB04
                0x000000008002bc10                func_8002BC10
                0x000000008002bc90                func_8002BC90
                0x000000008002c044                func_8002C044
                0x000000008002c140                func_8002C140
                0x000000008002c1d8                func_8002C1D8
                0x000000008002c1e0                func_8002C1E0
                0x000000008002c218                func_8002C218
                0x000000008002c328                func_8002C328
                0x000000008002c3c8                func_8002C3C8
                0x000000008002c510                func_8002C510
                0x000000008002c5c4                func_8002C5C4
                0x000000008002c6dc                func_8002C6DC
                0x000000008002c6e4                func_8002C6E4
                0x000000008002c7a0                .L8002C7A0
                0x000000008002c80c                .L8002C80C
                0x000000008002c8fc                .L8002C8FC
                0x000000008002cba4                .L8002CBA4
                0x000000008002cc64                .L8002CC64
                0x000000008002cc74                .L8002CC74
                0x000000008002ccd0                func_8002CCD0
                0x000000008002cdb8                .L8002CDB8
                0x000000008002cdc8                .L8002CDC8
                0x000000008002ce1c                .L8002CE1C
                0x000000008002ce70                .L8002CE70
                0x000000008002ce7c                .L8002CE7C
                0x000000008002ce88                .L8002CE88
                0x000000008002ce94                .L8002CE94
                0x000000008002cea0                .L8002CEA0
                0x000000008002ceac                .L8002CEAC
                0x000000008002d040                func_8002D040
                0x000000008002d260                func_8002D260
                0x000000008002d2f4                func_8002D2F4
                0x000000008002d3c0                func_8002D3C0
                0x000000008002d488                func_8002D488
                0x000000008002d5e4                func_8002D5E4
                0x000000008002d670                func_8002D670
                0x000000008002d904                func_8002D904
                0x000000008002db0c                func_8002DB0C
                0x000000008002dc74                func_8002DC74
                0x000000008002dfc0                func_8002DFC0
                0x000000008002e288                func_8002E288
                0x000000008002e500                func_8002E500
                0x000000008002e89c                func_8002E89C
                0x000000008002ebb8                func_8002EBB8
                0x000000008002ecac                func_8002ECAC
                0x000000008002ed34                func_8002ED34
                0x000000008002ed48                func_8002ED48
                0x000000008002edc8                func_8002EDC8
                0x000000008002efe4                func_8002EFE4
                0x000000008002f154                func_8002F154
                0x000000008002f1c8                func_8002F1C8
                0x000000008002f2a8                func_8002F2A8
                0x000000008002f420                func_8002F420
                0x000000008002f6ac                func_8002F6AC
                0x000000008002f6d4                func_8002F6D4
                0x000000008002f93c                func_8002F93C
                0x000000008002fc30                func_8002FC30
                0x000000008002fd48                func_8002FD48
                0x000000008002fef8                func_8002FEF8
                0x0000000080030008                func_80030008
                0x00000000800303a8                func_800303A8
                0x0000000080030964                func_80030964
                0x00000000800309c0                func_800309C0
                0x0000000080030a24                func_80030A24
                0x0000000080030a74                func_80030A74
                0x0000000080030b0c                func_80030B0C
                0x0000000080030b84                func_80030B84
                0x0000000080030bb8                func_80030BB8
                0x0000000080030d9c                func_80030D9C
                0x0000000080030e58                func_80030E58
                0x0000000080030f94                func_80030F94
                0x00000000800310a4                func_800310A4
                0x000000008003119c                func_8003119C
                0x00000000800311ec                func_800311EC
                0x000000008003123c                func_8003123C
                0x0000000080031284                func_80031284
                0x00000000800312cc                func_800312CC
                0x0000000080031324                func_80031324
                0x000000008003137c                func_8003137C
                0x00000000800313cc                func_800313CC
                0x000000008003141c                func_8003141C
                0x0000000080031cac                func_80031CAC
                0x0000000080031d58                func_80031D58
                0x0000000080031ddc                func_80031DDC
                0x0000000080031e38                func_80031E38
                0x00000000800320f8                func_800320F8
                0x00000000800327b4                func_800327B4
                0x0000000080032900                func_80032900
                0x0000000080032e60                func_80032E60
                0x00000000800330a4                func_800330A4
                0x0000000080033204                func_80033204
                0x00000000800333a0                func_800333A0
                0x0000000080033428                func_80033428
                0x000000008003358c                func_8003358C
                0x00000000800335e4                func_800335E4
                0x00000000800336b8                func_800336B8
                0x00000000800337f4                func_800337F4
                0x00000000800338f4                func_800338F4
                0x0000000080033948                func_80033948
                0x00000000800339ac                func_800339AC
                0x00000000800339bc                func_800339BC
                0x0000000080033b54                func_80033B54
                0x0000000080033cb0                func_80033CB0
                0x0000000080033de4                func_80033DE4
                0x0000000080033e7c                func_80033E7C
                0x00000000800340cc                func_800340CC
                0x0000000080034644                func_80034644
                0x000000008003480c                func_8003480C
                0x00000000800348e4                func_800348E4
                0x00000000800349c0                func_800349C0
                0x0000000080034a0c                func_80034A0C
                0x0000000080034ac4                .L80034AC4
                0x0000000080034adc                .L80034ADC
                0x0000000080034b90                .L80034B90
                0x0000000080034bbc                .L80034BBC
                0x0000000080034c08                .L80034C08
                0x0000000080034ca8                .L80034CA8
                0x0000000080034cc0                .L80034CC0
                0x0000000080034d14                func_80034D14
                0x0000000080034d80                func_80034D80
                0x0000000080034e10                func_80034E10
                0x000000008003510c                func_8003510C
                0x00000000800351c8                func_800351C8
                0x0000000080035218                func_80035218
                0x000000008003526c                func_8003526C
                0x00000000800352c0                func_800352C0
                0x0000000080035394                func_80035394
                0x0000000080035524                func_80035524
                0x0000000080035824                func_80035824
                0x0000000080035878                func_80035878
                0x00000000800358cc                func_800358CC
                0x00000000800358dc                func_800358DC
                0x0000000080035978                func_80035978
                0x0000000080035a20                func_80035A20
                0x0000000080035c44                func_80035C44
                0x0000000080035d34                func_80035D34
                0x0000000080035e90                func_80035E90
                0x0000000080035fc4                .L80035FC4
                0x000000008003601c                .L8003601C
                0x0000000080036040                .L80036040
                0x00000000800360a8                .L800360A8
                0x000000008003619c                .L8003619C
                0x00000000800363b0                .L800363B0
                0x00000000800365b4                .L800365B4
                0x000000008003667c                func_8003667C
                0x00000000800366e4                func_800366E4
                0x00000000800367d0                func_800367D0
                0x00000000800369a0                func_800369A0
                0x0000000080036a60                func_80036A60
                0x0000000080036b44                func_80036B44
                0x0000000080036c14                func_80036C14
                0x0000000080036ce4                func_80036CE4
                0x0000000080036dc8                func_80036DC8
                0x000000008003707c                func_8003707C
                0x00000000800370ac                func_800370AC
                0x00000000800374d8                func_800374D8
                0x000000008003766c                func_8003766C
                0x0000000080037b18                func_80037B18
                0x0000000080037b90                func_80037B90
                0x0000000080037d48                .L80037D48
                0x0000000080037dc4                .L80037DC4
                0x0000000080037e4c                .L80037E4C
                0x00000000800380e4                .L800380E4
                0x0000000080038398                func_80038398
                0x00000000800384fc                func_800384FC
                0x0000000080038600                func_80038600
                0x0000000080038704                func_80038704
                0x0000000080038794                func_80038794
                0x0000000080038868                func_80038868
                0x0000000080038c94                func_80038C94
                0x0000000080038d1c                func_80038D1C
                0x0000000080038e1c                func_80038E1C
                0x0000000080038ff4                func_80038FF4
                0x00000000800390bc                func_800390BC
                0x0000000080039134                func_80039134
                0x000000008003929c                func_8003929C
                0x0000000080039468                func_80039468
                0x0000000080039644                func_80039644
                0x0000000080039724                func_80039724
                0x0000000080039838                func_80039838
                0x0000000080039894                func_80039894
                0x00000000800398f8                func_800398F8
                0x0000000080039970                func_80039970
                0x0000000080039a1c                func_80039A1C
                0x0000000080039adc                func_80039ADC
                0x0000000080039c1c                func_80039C1C
                0x0000000080039da0                func_80039DA0
                0x0000000080039e7c                func_80039E7C
                0x000000008003a120                func_8003A120
                0x000000008003a958                func_8003A958
                0x000000008003a9b8                func_8003A9B8
                0x000000008003aa18                func_8003AA18
                0x000000008003ab24                func_8003AB24
                0x000000008003ac30                func_8003AC30
                0x000000008003b630                func_8003B630
                0x000000008003b6bc                .L8003B6BC
                0x000000008003b710                .L8003B710
                0x000000008003b780                .L8003B780
                0x000000008003b804                .L8003B804
                0x000000008003b848                .L8003B848
                0x000000008003b8cc                func_8003B8CC
                0x000000008003be3c                func_8003BE3C
                0x000000008003c328                func_8003C328
                0x000000008003d518                func_8003D518
                0x000000008003d5a0                func_8003D5A0
                0x000000008003d628                func_8003D628
                0x000000008003d68c                func_8003D68C
                0x000000008003d794                func_8003D794
                0x000000008003dbd0                func_8003DBD0
                0x000000008003dc38                .L8003DC38
                0x000000008003dcb0                .L8003DCB0
                0x000000008003ddc8                .L8003DDC8
                0x000000008003de10                .L8003DE10
                0x000000008003df28                .L8003DF28
                0x000000008003df78                func_8003DF78
                0x000000008003e230                func_8003E230
                0x000000008003e52c                func_8003E52C
                0x000000008003e640                func_8003E640
                0x000000008003e6a4                func_8003E6A4
                0x000000008003e854                func_8003E854
                0x000000008003eae0                func_8003EAE0
                0x000000008003ec0c                func_8003EC0C
                0x000000008003ed48                func_8003ED48
                0x000000008003edf4                func_8003EDF4
                0x000000008003eec0                func_8003EEC0
                0x000000008003ef98                func_8003EF98
                0x000000008003f05c                func_8003F05C
                0x000000008003f138                func_8003F138
                0x000000008003f248                func_8003F248
                0x000000008003f360                func_8003F360
                0x000000008003f6a4                func_8003F6A4
                0x000000008003f7a0                func_8003F7A0
                0x000000008003f8b0                func_8003F8B0
                0x000000008003f9cc                func_8003F9CC
                0x000000008003f9e0                func_8003F9E0
                0x000000008003fb20                func_8003FB20
                0x000000008003fd0c                func_8003FD0C
                0x000000008003fe4c                func_8003FE4C
                0x000000008003fe90                func_8003FE90
                0x000000008003fed8                func_8003FED8
                0x000000008003ff20                func_8003FF20
                0x000000008003ff68                func_8003FF68
                0x0000000080040098                func_80040098
                0x000000008004023c                func_8004023C
                0x00000000800404ac                func_800404AC
                0x0000000080040564                func_80040564
                0x00000000800405c0                func_800405C0
                0x00000000800406a4                func_800406A4
                0x00000000800407d4                func_800407D4
                0x0000000080040858                func_80040858
                0x000000008004089c                func_8004089C
                0x00000000800409e0                func_800409E0
                0x0000000080040a64                func_80040A64
                0x0000000080040ab4                func_80040AB4
                0x0000000080040b4c                func_80040B4C
                0x0000000080040e08                func_80040E08
                0x0000000080041018                func_80041018
                0x000000008004151c                func_8004151C
                0x000000008004168c                func_8004168C
                0x000000008004172c                func_8004172C
                0x000000008004178c                func_8004178C
                0x000000008004185c                func_8004185C
                0x00000000800418a8                func_800418A8
                0x0000000080041900                .L80041900
                0x0000000080041970                .L80041970
                0x0000000080041ac8                .L80041AC8
                0x0000000080041dfc                .L80041DFC
                0x0000000080041e8c                .L80041E8C
                0x0000000080041fb8                .L80041FB8
                0x0000000080041ff0                .L80041FF0
                0x0000000080042160                .L80042160
                0x0000000080042290                func_80042290
                0x0000000080042308                func_80042308
                0x0000000080042310                func_80042310
                0x0000000080042324                func_80042324
                0x0000000080042338                func_80042338
                0x0000000080042340                func_80042340
                0x0000000080042348                func_80042348
                0x0000000080042350                func_80042350
                0x0000000080042358                func_80042358
                0x0000000080042360                func_80042360
                0x00000000800423a0                func_800423A0
                0x00000000800427e0                func_800427E0
                0x0000000080042864                func_80042864
                0x00000000800429a4                func_800429A4
                0x0000000080042a0c                func_80042A0C
                0x0000000080042aec                func_80042AEC
                0x0000000080042b2c                func_80042B2C
                0x0000000080042b94                func_80042B94
                0x0000000080042c10                func_80042C10
                0x0000000080042ce0                func_80042CE0
                0x0000000080042ce8                func_80042CE8
                0x0000000080042cf0                func_80042CF0
                0x0000000080042cf8                func_80042CF8
                0x0000000080042d84                func_80042D84
                0x0000000080042dbc                func_80042DBC
                0x0000000080042e28                func_80042E28
                0x0000000080042e84                func_80042E84
                0x0000000080042f2c                func_80042F2C
                0x000000008004320c                func_8004320C
                0x0000000080043234                func_80043234
                0x0000000080043478                func_80043478
                0x0000000080043918                func_80043918
                0x000000008004398c                func_8004398C
                0x0000000080043a68                func_80043A68
                0x0000000080043c10                func_80043C10
                0x0000000080043d04                func_80043D04
                0x0000000080043d30                func_80043D30
                0x0000000080043d6c                func_80043D6C
                0x0000000080043e64                func_80043E64
                0x000000008004400c                func_8004400C
                0x00000000800441f4                func_800441F4
                0x0000000080044360                func_80044360
                0x0000000080044390                func_80044390
                0x0000000080044468                func_80044468
                0x0000000080044540                func_80044540
                0x0000000080044618                func_80044618
                0x00000000800446f0                func_800446F0
                0x00000000800447ac                func_800447AC
                0x0000000080044884                func_80044884
                0x000000008004495c                func_8004495C
                0x00000000800449a8                func_800449A8
                0x0000000080044a38                func_80044A38
                0x0000000080044a84                func_80044A84
                0x0000000080044b00                func_80044B00
                0x0000000080044b7c                func_80044B7C
                0x0000000080044bd8                func_80044BD8
                0x0000000080044c34                func_80044C34
                0x0000000080044c90                func_80044C90
                0x0000000080044cec                func_80044CEC
                0x0000000080044d48                func_80044D48
                0x0000000080044da4                func_80044DA4
                0x0000000080044dec                func_80044DEC
                0x0000000080044e34                func_80044E34
                0x0000000080044e7c                func_80044E7C
                0x0000000080044ec4                func_80044EC4
                0x0000000080044f0c                func_80044F0C
                0x0000000080044f54                func_80044F54
                0x0000000080044f9c                func_80044F9C
                0x0000000080044fe4                func_80044FE4
                0x000000008004502c                func_8004502C
                0x0000000080045074                func_80045074
                0x00000000800450d0                func_800450D0
                0x000000008004512c                func_8004512C
                0x0000000080045188                func_80045188
                0x00000000800451e4                func_800451E4
                0x0000000080045500                func_80045500
                0x0000000080045544                func_80045544
                0x0000000080045610                func_80045610
                0x00000000800456dc                func_800456DC
                0x000000008004571c                func_8004571C
                0x0000000080045758                func_80045758
                0x00000000800457c8                func_800457C8
                0x000000008004586c                .L8004586C
                0x00000000800458c4                .L800458C4
                0x000000008004591c                .L8004591C
                0x000000008004596c                .L8004596C
                0x00000000800459bc                .L800459BC
                0x0000000080045a0c                .L80045A0C
                0x0000000080045a5c                .L80045A5C
                0x0000000080045ab4                .L80045AB4
                0x0000000080045d84                func_80045D84
                0x0000000080045d9c                func_80045D9C
                0x0000000080045e58                func_80045E58
                0x0000000080045f08                func_80045F08
                0x0000000080045f14                func_80045F14
                0x0000000080045fa4                func_80045FA4
                0x0000000080046148                func_80046148
                0x0000000080046188                func_80046188
                0x0000000080046218                func_80046218
                0x0000000080046274                func_80046274
                0x0000000080046280                func_80046280
                0x00000000800462f0                func_800462F0
                0x00000000800463c0                func_800463C0
                0x00000000800463f0                func_800463F0
                0x0000000080046434                func_80046434
                0x0000000080046498                func_80046498
                0x00000000800465f4                func_800465F4
                0x000000008004664c                func_8004664C
                0x000000008004667c                func_8004667C
                0x00000000800467ec                func_800467EC
                0x0000000080046890                func_80046890
                0x0000000080046934                func_80046934
                0x0000000080046a30                func_80046A30
                0x0000000080046a9c                func_80046A9C
                0x0000000080046b4c                func_80046B4C
                0x0000000080046d5c                func_80046D5C
                0x0000000080046e6c                func_80046E6C
                0x0000000080046ebc                func_80046EBC
                0x0000000080046f14                .L80046F14
                0x000000008004701c                .L8004701C
                0x000000008004706c                .L8004706C
                0x00000000800471a4                .L800471A4
                0x0000000080047240                .L80047240
                0x0000000080047284                .L80047284
                0x00000000800472d4                func_800472D4
                0x000000008004732c                func_8004732C
                0x000000008004735c                func_8004735C
                0x0000000080047410                func_80047410
                0x00000000800475ec                func_800475EC
                0x0000000080047648                func_80047648
                0x0000000080047674                func_80047674
                0x000000008004767c                func_8004767C
                0x0000000080047714                func_80047714
                0x0000000080047958                func_80047958
                0x0000000080047994                func_80047994
                0x0000000080047a14                func_80047A14
                0x0000000080047a54                func_80047A54
                0x0000000080047ac4                func_80047AC4
                0x0000000080047b68                func_80047B68
                0x0000000080047c28                func_80047C28
                0x0000000080047c98                func_80047C98
                0x0000000080047ccc                func_80047CCC
                0x0000000080047e30                func_80047E30
                0x0000000080047e38                func_80047E38
                0x0000000080047ed4                func_80047ED4
                0x0000000080047f80                func_80047F80
                0x0000000080047ff8                func_80047FF8
                0x00000000800480b8                func_800480B8
                0x0000000080048238                func_80048238
                0x0000000080048320                func_80048320
                0x00000000800483b4                func_800483B4
                0x0000000080048408                func_80048408
                0x00000000800485ac                func_800485AC
                0x0000000080048600                func_80048600
                0x00000000800486f4                func_800486F4
                0x0000000080048740                func_80048740
                0x0000000080048bb0                func_80048BB0
                0x0000000080048c28                func_80048C28
                0x0000000080048c94                func_80048C94
                0x0000000080048ce4                func_80048CE4
                0x0000000080048d30                func_80048D30
                0x0000000080048edc                func_80048EDC
                0x0000000080048f70                func_80048F70
                0x0000000080049040                func_80049040
                0x00000000800490bc                func_800490BC
                0x00000000800491b8                func_800491B8
                0x0000000080049300                func_80049300
                0x0000000080049460                func_80049460
                0x0000000080049660                func_80049660
                0x0000000080049a04                func_80049A04
                0x0000000080049ac0                func_80049AC0
                0x000000008004a8e0                func_8004A8E0
                0x000000008004a918                func_8004A918
                0x000000008004a960                func_8004A960
                0x000000008004aa64                func_8004AA64
                0x000000008004ab3c                func_8004AB3C
                0x000000008004b0a0                func_8004B0A0
                0x000000008004b18c                func_8004B18C
                0x000000008004b290                func_8004B290
                0x000000008004b344                func_8004B344
                0x000000008004b878                func_8004B878
                0x000000008004bb08                func_8004BB08
                0x000000008004bef8                func_8004BEF8
                0x000000008004c5fc                func_8004C5FC
                0x000000008004ce1c                func_8004CE1C
                0x000000008004d140                func_8004D140
                0x000000008004d6cc                func_8004D6CC
                0x000000008004d7bc                func_8004D7BC
                0x000000008004da6c                func_8004DA6C
                0x000000008004dc44                func_8004DC44
                0x000000008004e1d4                func_8004E1D4
                0x000000008004e1dc                func_8004E1DC
                0x000000008004e1e4                func_8004E1E4
                0x000000008004e4e0                func_8004E4E0
                0x000000008004e6fc                func_8004E6FC
                0x000000008004eae4                func_8004EAE4
                0x000000008004ec60                func_8004EC60
                0x000000008004ed10                func_8004ED10
                0x000000008004f2b0                func_8004F2B0
                0x000000008004f35c                func_8004F35C
                0x000000008004f514                func_8004F514
                0x000000008004f5b0                func_8004F5B0
                0x000000008004f614                func_8004F614
                0x000000008004f7d8                func_8004F7D8
                0x000000008004fb30                func_8004FB30
                0x000000008004fc68                func_8004FC68
                0x000000008004fdf8                func_8004FDF8
                0x00000000800500b0                func_800500B0
                0x000000008005060c                func_8005060C
                0x000000008005074c                func_8005074C
                0x00000000800508f4                func_800508F4
                0x00000000800509c0                func_800509C0
                0x0000000080050f3c                func_80050F3C
                0x0000000080051324                func_80051324
                0x0000000080051c48                func_80051C48
                0x0000000080052004                func_80052004
                0x0000000080052780                func_80052780
                0x000000008005278c                func_8005278C
                0x00000000800528f4                func_800528F4
                0x0000000080052a6c                func_80052A6C
                0x0000000080052c4c                func_80052C4C
                0x0000000080052cd0                func_80052CD0
                0x0000000080053210                func_80053210
                0x0000000080053358                func_80053358
                0x00000000800536cc                func_800536CC
                0x000000008005396c                func_8005396C
                0x0000000080053b28                func_80053B28
                0x0000000080053dc8                func_80053DC8
                0x0000000080053f34                func_80053F34
                0x00000000800541b8                func_800541B8
                0x0000000080054320                func_80054320
                0x0000000080054474                func_80054474
                0x000000008005457c                func_8005457C
                0x000000008005498c                func_8005498C
                0x0000000080054e18                func_80054E18
                0x0000000080054fd0                func_80054FD0
                0x0000000080055188                func_80055188
                0x00000000800551f8                func_800551F8
                0x00000000800553ec                func_800553EC
                0x000000008005544c                func_8005544C
                0x00000000800554ac                func_800554AC
                0x000000008005552c                func_8005552C
                0x0000000080055538                func_80055538
                0x00000000800558f8                func_800558F8
                0x0000000080055c2c                func_80055C2C
                0x0000000080055d3c                .L80055D3C
                0x0000000080055d54                .L80055D54
                0x0000000080055d70                .L80055D70
                0x0000000080055d84                .L80055D84
                0x0000000080055d98                .L80055D98
                0x0000000080055da8                .L80055DA8
                0x0000000080055f8c                func_80055F8C
                0x000000008005609c                .L8005609C
                0x00000000800560b4                .L800560B4
                0x00000000800560d0                .L800560D0
                0x00000000800560e4                .L800560E4
                0x00000000800560f8                .L800560F8
                0x0000000080056108                .L80056108
                0x00000000800562ec                func_800562EC
                0x00000000800563fc                .L800563FC
                0x0000000080056414                .L80056414
                0x0000000080056430                .L80056430
                0x0000000080056444                .L80056444
                0x0000000080056458                .L80056458
                0x0000000080056468                .L80056468
                0x000000008005664c                func_8005664C
                0x000000008005675c                .L8005675C
                0x0000000080056774                .L80056774
                0x0000000080056790                .L80056790
                0x00000000800567a4                .L800567A4
                0x00000000800567b8                .L800567B8
                0x00000000800567c8                .L800567C8
                0x00000000800569ac                func_800569AC
                0x0000000080056abc                .L80056ABC
                0x0000000080056ad8                .L80056AD8
                0x0000000080056ae8                .L80056AE8
                0x0000000080056ccc                func_80056CCC
                0x0000000080056f54                func_80056F54
                0x000000008005701c                func_8005701C
                0x0000000080057268                func_80057268
                0x0000000080057320                func_80057320
                0x000000008005739c                func_8005739C
                0x00000000800574b4                func_800574B4
                0x00000000800575c0                func_800575C0
                0x00000000800576a0                func_800576A0
                0x0000000080057848                func_80057848
                0x0000000080057c98                func_80057C98
                0x0000000080057d1c                .L80057D1C
                0x0000000080057df0                .L80057DF0
                0x0000000080057fb0                .L80057FB0
                0x0000000080057ff8                .L80057FF8
                0x00000000800582f8                .L800582F8
                0x000000008005836c                .L8005836C
                0x000000008005844c                .L8005844C
                0x00000000800584d4                func_800584D4
                0x000000008005878c                func_8005878C
                0x0000000080058924                func_80058924
                0x000000008005896c                func_8005896C
                0x0000000080058978                func_80058978
                0x0000000080058a38                func_80058A38
                0x0000000080058ae0                func_80058AE0
                0x0000000080058b68                func_80058B68
                0x0000000080058c24                func_80058C24
                0x0000000080058cac                func_80058CAC
                0x0000000080058d3c                func_80058D3C
                0x0000000080058e44                func_80058E44
                0x0000000080058eb0                func_80058EB0
                0x0000000080058f54                func_80058F54
                0x0000000080058f9c                func_80058F9C
                0x00000000800592a0                func_800592A0
                0x00000000800593dc                func_800593DC
                0x0000000080059624                func_80059624
                0x0000000080059abc                func_80059ABC
                0x0000000080059d88                func_80059D88
                0x0000000080059f30                func_80059F30
                0x000000008005a068                func_8005A068
                0x000000008005a1a4                func_8005A1A4
                0x000000008005a320                func_8005A320
                0x000000008005a4b0                func_8005A4B0
                0x000000008005a6d0                func_8005A6D0
                0x000000008005a7d0                func_8005A7D0
                0x000000008005a930                func_8005A930
                0x000000008005aca8                func_8005ACA8
                0x000000008005acb0                func_8005ACB0
                0x000000008005b164                func_8005B164
                0x000000008005b1e8                func_8005B1E8
                0x000000008005b3f4                func_8005B3F4
                0x000000008005b5fc                func_8005B5FC
                0x000000008005b82c                func_8005B82C
                0x000000008005ba38                func_8005BA38
                0x000000008005bbc0                func_8005BBC0
                0x000000008005bcf8                func_8005BCF8
                0x000000008005bfa4                func_8005BFA4
                0x000000008005c014                .L8005C014
                0x000000008005c024                .L8005C024
                0x000000008005c034                .L8005C034
                0x000000008005c044                .L8005C044
                0x000000008005c054                .L8005C054
                0x000000008005c098                func_8005C098
                0x000000008005c0cc                func_8005C0CC
                0x000000008005c250                func_8005C250
                0x000000008005c3c8                func_8005C3C8
                0x000000008005c520                func_8005C520
                0x000000008005c550                func_8005C550
                0x000000008005c5e0                func_8005C5E0
                0x000000008005c6d0                func_8005C6D0
                0x000000008005c6e4                func_8005C6E4
                0x000000008005c708                func_8005C708
                0x000000008005c774                func_8005C774
                0x000000008005c870                func_8005C870
                0x000000008005c8a4                func_8005C8A4
                0x000000008005ca34                func_8005CA34
                0x000000008005ca98                func_8005CA98
                0x000000008005caa8                func_8005CAA8
                0x000000008005d1b0                func_8005D1B0
                0x000000008005d1e8                func_8005D1E8
                0x000000008005d338                func_8005D338
                0x000000008005d370                func_8005D370
                0x000000008005d3d8                func_8005D3D8
                0x000000008005d418                func_8005D418
                0x000000008005d450                func_8005D450
                0x000000008005d630                func_8005D630
                0x000000008005d664                func_8005D664
                0x000000008005d6a0                func_8005D6A0
                0x000000008005d6dc                func_8005D6DC
                0x000000008005d718                func_8005D718
                0x000000008005d74c                func_8005D74C
                0x000000008005d780                func_8005D780
                0x000000008005d7bc                func_8005D7BC
                0x000000008005d7f8                func_8005D7F8
                0x000000008005d82c                func_8005D82C
                0x000000008005d860                func_8005D860
                0x000000008005d894                func_8005D894
                0x000000008005d8d0                func_8005D8D0
                0x000000008005d90c                func_8005D90C
                0x000000008005d948                func_8005D948
                0x000000008005d984                func_8005D984
                0x000000008005d9b8                func_8005D9B8
                0x000000008005d9ec                func_8005D9EC
                0x000000008005da20                func_8005DA20
                0x000000008005da5c                func_8005DA5C
                0x000000008005da98                func_8005DA98
                0x000000008005dacc                func_8005DACC
                0x000000008005db00                func_8005DB00
                0x000000008005db34                func_8005DB34
                0x000000008005db68                func_8005DB68
                0x000000008005db9c                func_8005DB9C
                0x000000008005dbd0                func_8005DBD0
                0x000000008005dc04                func_8005DC04
                0x000000008005dc38                func_8005DC38
                0x000000008005dc64                func_8005DC64
                0x000000008005dc98                func_8005DC98
                0x000000008005dccc                func_8005DCCC
                0x000000008005dd00                func_8005DD00
                0x000000008005dd34                func_8005DD34
                0x000000008005dd68                func_8005DD68
                0x000000008005dd9c                func_8005DD9C
                0x000000008005ddc8                func_8005DDC8
                0x000000008005ddfc                func_8005DDFC
                0x000000008005de30                func_8005DE30
                0x000000008005defc                func_8005DEFC
                0x000000008005df30                func_8005DF30
                0x000000008005df40                func_8005DF40
                0x000000008005df5c                func_8005DF5C
                0x000000008005dfc8                func_8005DFC8
                0x000000008005e09c                func_8005E09C
                0x000000008005e0b0                func_8005E0B0
                0x000000008005e1cc                func_8005E1CC
                0x000000008005e260                func_8005E260
                0x000000008005e56c                func_8005E56C
                0x000000008005e8f8                func_8005E8F8
                0x000000008005e95c                .L8005E95C
                0x000000008005e9bc                .L8005E9BC
                0x000000008005eae0                .L8005EAE0
                0x000000008005eb48                .L8005EB48
                0x000000008005ebe0                .L8005EBE0
                0x000000008005ec10                .L8005EC10
                0x000000008005ec20                func_8005EC20
                0x000000008005ee24                func_8005EE24
                0x000000008005f088                func_8005F088
                0x000000008005f6d4                func_8005F6D4
                0x000000008005fabc                .L8005FABC
                0x000000008005fb28                .L8005FB28
                0x000000008005fb68                .L8005FB68
                0x000000008005fb98                .L8005FB98
                0x000000008005fbd8                .L8005FBD8
                0x000000008005fbf8                .L8005FBF8
                0x000000008005fc18                .L8005FC18
                0x000000008005fc20                .L8005FC20
                0x000000008005fc40                .L8005FC40
                0x000000008005fd78                .L8005FD78
                0x000000008005fd88                .L8005FD88
                0x000000008005fd98                .L8005FD98
                0x000000008005fda8                .L8005FDA8
                0x000000008005fdb8                .L8005FDB8
                0x000000008005fdc8                .L8005FDC8
                0x000000008005fdd8                .L8005FDD8
                0x00000000800600f0                func_800600F0
                0x00000000800601fc                func_800601FC
                0x000000008006098c                func_8006098C
                0x0000000080060db8                func_80060DB8
                0x0000000080060f80                func_80060F80
                0x0000000080060f88                func_80060F88
                0x00000000800612d8                func_800612D8
                0x0000000080061350                func_80061350
                0x0000000080061450                func_80061450
                0x00000000800614d4                func_800614D4
                0x0000000080061554                func_80061554
                0x00000000800615bc                func_800615BC
                0x0000000080061624                func_80061624
                0x0000000080061688                .L80061688
                0x00000000800616e0                .L800616E0
                0x0000000080061718                .L80061718
                0x0000000080061768                .L80061768
                0x00000000800617ac                .L800617AC
                0x0000000080061814                .L80061814
                0x0000000080061980                .L80061980
                0x00000000800619ac                .L800619AC
                0x00000000800619c8                .L800619C8
                0x00000000800619e4                .L800619E4
                0x0000000080061a00                .L80061A00
                0x0000000080061a24                .L80061A24
                0x0000000080061a50                .L80061A50
                0x0000000080061a7c                .L80061A7C
                0x0000000080061aa8                .L80061AA8
                0x0000000080061af8                .L80061AF8
                0x0000000080061bd8                .L80061BD8
                0x0000000080061c4c                .L80061C4C
                0x0000000080061db8                .L80061DB8
                0x0000000080061dec                .L80061DEC
                0x0000000080061e08                .L80061E08
                0x0000000080061e4c                .L80061E4C
                0x0000000080061e88                .L80061E88
                0x0000000080061e98                func_80061E98
                0x0000000080062014                .L80062014
                0x0000000080062034                .L80062034
                0x0000000080062054                .L80062054
                0x0000000080062074                .L80062074
                0x0000000080062174                func_80062174
                0x0000000080062300                func_80062300
                0x0000000080062360                func_80062360
                0x00000000800623c0                func_800623C0
                0x000000008006242c                func_8006242C
                0x0000000080062524                func_80062524
                0x0000000080062624                func_80062624
                0x000000008006275c                func_8006275C
                0x0000000080062874                func_80062874
                0x000000008006291c                func_8006291C
                0x00000000800629a8                func_800629A8
                0x0000000080062a34                func_80062A34
                0x0000000080062ac0                func_80062AC0
                0x0000000080062b4c                func_80062B4C
                0x0000000080062cb4                func_80062CB4
                0x0000000080062e1c                func_80062E1C
                0x0000000080062f84                func_80062F84
                0x00000000800630e8                func_800630E8
                0x00000000800631a0                func_800631A0
                0x0000000080063258                func_80063258
                0x000000008006330c                func_8006330C
                0x00000000800633c4                func_800633C4
                0x0000000080063418                func_80063418
                0x000000008006346c                func_8006346C
                0x0000000080063810                .L80063810
                0x000000008006384c                .L8006384C
                0x0000000080063888                .L80063888
                0x00000000800638dc                .L800638DC
                0x0000000080063910                .L80063910
                0x0000000080063944                .L80063944
                0x0000000080063978                .L80063978
                0x00000000800639ac                .L800639AC
                0x00000000800639e8                .L800639E8
                0x0000000080063a24                .L80063A24
                0x0000000080063a60                .L80063A60
                0x0000000080063a9c                .L80063A9C
                0x0000000080063ae0                .L80063AE0
                0x0000000080063b44                .L80063B44
                0x0000000080063b8c                .L80063B8C
                0x0000000080063bf4                .L80063BF4
                0x0000000080063c38                .L80063C38
                0x0000000080063c9c                .L80063C9C
                0x0000000080063ce4                .L80063CE4
                0x0000000080063d4c                .L80063D4C
                0x0000000080063d5c                .L80063D5C
                0x0000000080063d7c                .L80063D7C
                0x0000000080063d9c                .L80063D9C
                0x0000000080063dc8                .L80063DC8
                0x0000000080063e10                .L80063E10
                0x0000000080063e40                .L80063E40
                0x0000000080063e8c                .L80063E8C
                0x0000000080063edc                .L80063EDC
                0x0000000080063f34                .L80063F34
                0x0000000080063f88                .L80063F88
                0x0000000080063fdc                .L80063FDC
                0x0000000080063ff4                func_80063FF4
                0x00000000800640a0                func_800640A0
                0x00000000800641cc                func_800641CC
                0x0000000080064328                func_80064328
                0x00000000800643cc                func_800643CC
                0x0000000080064528                func_80064528
                0x00000000800645f4                func_800645F4
                0x000000008006475c                func_8006475C
                0x00000000800648c4                func_800648C4
                0x0000000080064aa0                func_80064AA0
                0x0000000080064b60                func_80064B60
                0x0000000080064cb4                func_80064CB4
                0x0000000080064eb4                func_80064EB4
                0x0000000080064f4c                func_80064F4C
                0x0000000080065178                func_80065178
                0x0000000080065218                func_80065218
                0x0000000080065270                func_80065270
                0x0000000080065314                .L80065314
                0x00000000800653c0                .L800653C0
                0x0000000080065404                .L80065404
                0x0000000080065520                .L80065520
                0x0000000080065554                .L80065554
                0x0000000080065650                func_80065650
                0x0000000080065724                func_80065724
                0x00000000800657b0                func_800657B0
                0x00000000800658d8                func_800658D8
                0x0000000080065a38                func_80065A38
                0x0000000080065b78                func_80065B78
                0x0000000080065d60                func_80065D60
                0x0000000080065f14                func_80065F14
                0x000000008006605c                func_8006605C
                0x00000000800662f0                func_800662F0
                0x000000008006641c                func_8006641C
                0x0000000080066644                func_80066644
                0x00000000800666b4                func_800666B4
                0x000000008006678c                func_8006678C
                0x00000000800668e0                func_800668E0
                0x0000000080066964                func_80066964
                0x0000000080066a10                func_80066A10
                0x0000000080066bcc                func_80066BCC
                0x0000000080067068                func_80067068
                0x0000000080067214                func_80067214
                0x0000000080067394                func_80067394
                0x000000008006756c                func_8006756C
                0x00000000800679dc                func_800679DC
                0x0000000080067b18                func_80067B18
                0x0000000080067e50                func_80067E50
                0x0000000080067e9c                func_80067E9C
                0x0000000080067ef0                func_80067EF0
                0x0000000080067f44                func_80067F44
                0x0000000080067f98                func_80067F98
                0x0000000080067fec                func_80067FEC
                0x0000000080068040                func_80068040
                0x00000000800682ac                func_800682AC
                0x0000000080068378                func_80068378
                0x00000000800684d0                func_800684D0
                0x0000000080068570                func_80068570
                0x00000000800686cc                func_800686CC
                0x00000000800686d8                func_800686D8
                0x0000000080068870                func_80068870
                0x0000000080068878                func_80068878
                0x0000000080068888                func_80068888
                0x0000000080068898                func_80068898
                0x00000000800688c0                func_800688C0
                0x00000000800688e8                func_800688E8
                0x000000008006890c                func_8006890C
                0x0000000080068934                func_80068934
                0x00000000800689a8                func_800689A8
                0x00000000800689f8                func_800689F8
                0x0000000080068a30                func_80068A30
                0x0000000080068a68                func_80068A68
                0x0000000080068acc                func_80068ACC
                0x0000000080068ad4                func_80068AD4
                0x0000000080068b00                func_80068B00
                0x0000000080068b28                func_80068B28
                0x0000000080068b54                func_80068B54
                0x0000000080068b80                func_80068B80
                0x0000000080068b8c                func_80068B8C
                0x0000000080068be8                func_80068BE8
                0x0000000080068c48                func_80068C48
                0x0000000080068ca8                func_80068CA8
                0x0000000080068d18                func_80068D18
                0x0000000080068d88                func_80068D88
                0x0000000080068df8                func_80068DF8
                0x0000000080068e00                func_80068E00
                0x0000000080068e08                func_80068E08
                0x0000000080068e48                func_80068E48
                0x0000000080068f08                func_80068F08
                0x0000000080068fbc                func_80068FBC
                0x000000008006907c                func_8006907C
                0x0000000080069130                func_80069130
                0x0000000080069138                func_80069138
                0x0000000080069204                func_80069204
                0x00000000800692c0                func_800692C0
                0x00000000800692c8                func_800692C8
                0x00000000800692d0                func_800692D0
                0x00000000800692d8                func_800692D8
                0x00000000800692e0                func_800692E0
                0x00000000800692e8                func_800692E8
                0x00000000800692f0                func_800692F0
                0x00000000800692f8                func_800692F8
                0x0000000080069304                func_80069304
                0x000000008006930c                func_8006930C
                0x0000000080069538                func_80069538
                0x00000000800695e4                func_800695E4
                0x00000000800696a8                func_800696A8
                0x0000000080069714                func_80069714
                0x0000000080069814                func_80069814
                0x0000000080069884                func_80069884
                0x0000000080069934                .L80069934
                0x0000000080069958                .L80069958
                0x000000008006998c                .L8006998C
                0x00000000800699b4                .L800699B4
                0x00000000800699dc                .L800699DC
                0x00000000800699fc                .L800699FC
                0x0000000080069a18                func_80069A18
                0x0000000080069b94                func_80069B94
                0x0000000080069bf4                func_80069BF4
                0x0000000080069c54                func_80069C54
                0x0000000080069cdc                func_80069CDC
                0x0000000080069d04                func_80069D04
                0x0000000080069da8                func_80069DA8
                0x0000000080069e18                func_80069E18
                0x0000000080069ec4                func_80069EC4
                0x0000000080069f10                func_80069F10
                0x000000008006a06c                func_8006A06C
                0x000000008006a0b8                func_8006A0B8
                0x000000008006a214                func_8006A214
                0x000000008006a384                func_8006A384
                0x000000008006a4dc                func_8006A4DC
                0x000000008006a64c                func_8006A64C
                0x000000008006a724                func_8006A724
                0x000000008006a7b0                func_8006A7B0
                0x000000008006a924                func_8006A924
                0x000000008006abec                func_8006ABEC
                0x000000008006ad50                func_8006AD50
                0x000000008006adf8                func_8006ADF8
                0x000000008006ae84                func_8006AE84
                0x000000008006af30                func_8006AF30
                0x000000008006b310                func_8006B310
                0x000000008006b448                func_8006B448
                0x000000008006b518                func_8006B518
                0x000000008006b5b0                func_8006B5B0
                0x000000008006b648                func_8006B648
                0x000000008006b6bc                .L8006B6BC
                0x000000008006b720                .L8006B720
                0x000000008006b784                .L8006B784
                0x000000008006b7e8                .L8006B7E8
                0x000000008006b838                .L8006B838
                0x000000008006b8f0                .L8006B8F0
                0x000000008006b940                func_8006B940
                0x000000008006b9ec                func_8006B9EC
                0x000000008006ba80                func_8006BA80
                0x000000008006bafc                func_8006BAFC
                0x000000008006bb8c                func_8006BB8C
                0x000000008006bc90                func_8006BC90
                0x000000008006bd08                func_8006BD08
                0x000000008006bef4                func_8006BEF4
                0x000000008006c0f4                func_8006C0F4
                0x000000008006c1a4                func_8006C1A4
                0x000000008006c1ac                func_8006C1AC
                0x000000008006c5a4                func_8006C5A4
                0x000000008006c6f0                func_8006C6F0
                0x000000008006c7b8                func_8006C7B8
                0x000000008006c8b8                func_8006C8B8
                0x000000008006c908                func_8006C908
                0x000000008006c944                func_8006C944
                0x000000008006c994                func_8006C994
                0x000000008006c9d0                func_8006C9D0
                0x000000008006ca0c                func_8006CA0C
                0x000000008006cad4                func_8006CAD4
                0x000000008006cb10                func_8006CB10
                0x000000008006cb4c                func_8006CB4C
                0x000000008006cb88                func_8006CB88
                0x000000008006cc70                func_8006CC70
                0x000000008006cd5c                func_8006CD5C
                0x000000008006ce74                func_8006CE74
                0x000000008006cf20                func_8006CF20
                0x000000008006cfdc                func_8006CFDC
                0x000000008006d0ec                func_8006D0EC
                0x000000008006d160                func_8006D160
                0x000000008006d3e4                func_8006D3E4
                0x000000008006d65c                func_8006D65C
                0x000000008006d744                func_8006D744
                0x000000008006d7f8                func_8006D7F8
                0x000000008006d884                func_8006D884
                0x000000008006d914                func_8006D914
                0x000000008006d9a4                func_8006D9A4
                0x000000008006db10                func_8006DB10
                0x000000008006db18                func_8006DB18
                0x000000008006dbe4                func_8006DBE4
                0x000000008006dcb8                func_8006DCB8
                0x000000008006ddf0                func_8006DDF0
                0x000000008006df28                func_8006DF28
                0x000000008006e000                func_8006E000
                0x000000008006e1f8                func_8006E1F8
                0x000000008006e3dc                func_8006E3DC
                0x000000008006e3e4                func_8006E3E4
                0x000000008006e4ec                func_8006E4EC
                0x000000008006e9b4                func_8006E9B4
                0x000000008006ea3c                func_8006EA3C
                0x000000008006eac8                func_8006EAC8
                0x000000008006f1fc                func_8006F1FC
                0x000000008006f5d4                func_8006F5D4
                0x000000008006f730                func_8006F730
                0x000000008006f850                func_8006F850
                0x000000008006f90c                func_8006F90C
                0x000000008006fa38                func_8006FA38
                0x000000008006fac0                func_8006FAC0
                0x000000008006fb48                func_8006FB48
                0x000000008006fbd0                func_8006FBD0
                0x000000008006fcc0                func_8006FCC0
                0x000000008006fd74                func_8006FD74
                0x000000008006fe28                func_8006FE28
                0x000000008006fed0                func_8006FED0
                0x000000008006ff70                func_8006FF70
                0x0000000080070000                func_80070000
                0x0000000080070008                func_80070008
                0x0000000080070234                func_80070234
                0x0000000080070338                func_80070338
                0x0000000080070830                func_80070830
                0x000000008007095c                func_8007095C
                0x0000000080070a14                func_80070A14
                0x0000000080070a1c                func_80070A1C
                0x0000000080070a24                func_80070A24
                0x0000000080070bec                func_80070BEC
                0x0000000080070d3c                .L80070D3C
                0x0000000080070d54                .L80070D54
                0x0000000080070d6c                .L80070D6C
                0x0000000080070d84                .L80070D84
                0x0000000080070d9c                .L80070D9C
                0x0000000080070f14                .L80070F14
                0x0000000080070f24                func_80070F24
                0x0000000080071028                func_80071028
                0x00000000800715dc                func_800715DC
                0x00000000800717e8                func_800717E8
                0x0000000080071a64                func_80071A64
                0x0000000080071adc                .L80071ADC
                0x0000000080071af8                .L80071AF8
                0x0000000080071b78                .L80071B78
                0x0000000080071c30                .L80071C30
                0x0000000080071c78                .L80071C78
                0x0000000080071cb4                .L80071CB4
                0x0000000080071ce8                func_80071CE8
                0x0000000080071d54                .L80071D54
                0x0000000080071d88                .L80071D88
                0x0000000080071e3c                .L80071E3C
                0x0000000080071ef8                .L80071EF8
                0x0000000080072150                .L80072150
                0x0000000080072180                .L80072180
                0x00000000800721c4                func_800721C4
                0x00000000800722f8                func_800722F8
                0x0000000080072400                func_80072400
                0x0000000080072620                func_80072620
                0x0000000080072628                func_80072628
                0x00000000800726a0                .L800726A0
                0x0000000080072708                .L80072708
                0x0000000080072818                .L80072818
                0x0000000080072874                .L80072874
                0x00000000800728b4                .L800728B4
                0x00000000800728e8                func_800728E8
                0x0000000080072910                func_80072910
                0x0000000080072938                func_80072938
                0x0000000080072a28                func_80072A28
                0x0000000080072c1c                func_80072C1C
                0x0000000080072cc4                func_80072CC4
                0x0000000080072d9c                func_80072D9C
                0x0000000080072dd4                func_80072DD4
                0x0000000080072ddc                func_80072DDC
                0x0000000080072e54                func_80072E54
                0x0000000080072ee0                func_80072EE0
                0x0000000080072f54                func_80072F54
                0x0000000080072fe4                func_80072FE4
                0x000000008007325c                func_8007325C
                0x00000000800732f8                func_800732F8
                0x0000000080073320                func_80073320
                0x00000000800733ac                func_800733AC
                0x0000000080073438                func_80073438
                0x00000000800734c4                func_800734C4
                0x0000000080073558                func_80073558
                0x00000000800735ec                func_800735EC
                0x0000000080073680                func_80073680
                0x0000000080073744                func_80073744
                0x00000000800737c4                func_800737C4
                0x0000000080073880                .L80073880
                0x0000000080073898                .L80073898
                0x00000000800738b0                .L800738B0
                0x00000000800738c8                .L800738C8
                0x00000000800738e0                .L800738E0
                0x00000000800738f8                .L800738F8
                0x0000000080073960                .L80073960
                0x0000000080073970                func_80073970
                0x0000000080073a60                func_80073A60
                0x0000000080073ce8                func_80073CE8
                0x0000000080073e50                func_80073E50
                0x0000000080073ef4                func_80073EF4
                0x0000000080073fd8                func_80073FD8
                0x000000008007406c                func_8007406C
                0x00000000800740c8                func_800740C8
                0x00000000800742b8                func_800742B8
                0x00000000800742fc                func_800742FC
                0x00000000800744ac                func_800744AC
                0x00000000800744e0                func_800744E0
                0x0000000080074654                func_80074654
                0x0000000080074804                func_80074804
                0x0000000080074938                func_80074938
                0x0000000080074c30                func_80074C30
                0x0000000080074d28                func_80074D28
                0x000000008007502c                func_8007502C
                0x0000000080075324                func_80075324
                0x00000000800753c4                func_800753C4
                0x0000000080075418                func_80075418
                0x0000000080075498                func_80075498
                0x00000000800755f8                func_800755F8
                0x0000000080075670                func_80075670
                0x00000000800756fc                func_800756FC
                0x000000008007574c                func_8007574C
                0x0000000080075900                func_80075900
                0x0000000080075a90                func_80075A90
                0x0000000080075cd8                func_80075CD8
                0x0000000080075d50                func_80075D50
                0x0000000080075dc4                func_80075DC4
                0x0000000080075efc                .L80075EFC
                0x0000000080075fbc                .L80075FBC
                0x0000000080075fd4                .L80075FD4
                0x0000000080076004                .L80076004
                0x0000000080076038                .L80076038
                0x0000000080076050                .L80076050
                0x0000000080076074                .L80076074
                0x00000000800761d0                .L800761D0
                0x0000000080076228                func_80076228
                0x0000000080076270                func_80076270
                0x0000000080076374                func_80076374
                0x0000000080076414                func_80076414
                0x00000000800764b0                func_800764B0
                0x00000000800768d8                func_800768D8
                0x0000000080076950                func_80076950
                0x00000000800769ac                func_800769AC
                0x0000000080076a38                func_80076A38
                0x0000000080076ab4                func_80076AB4
                0x0000000080076bf4                func_80076BF4
                0x0000000080076d40                func_80076D40
                0x00000000800772bc                .L800772BC
                0x00000000800772ec                .L800772EC
                0x00000000800774a8                .L800774A8
                0x00000000800774cc                .L800774CC
                0x0000000080077668                .L80077668
                0x0000000080077768                .L80077768
                0x0000000080077b24                .L80077B24
                0x0000000080077c18                func_80077C18
                0x0000000080077d24                func_80077D24
                0x0000000080077f58                func_80077F58
                0x0000000080078190                func_80078190
                0x0000000080078214                func_80078214
                0x0000000080078338                func_80078338
                0x0000000080078418                func_80078418
                0x0000000080078764                .L80078764
                0x00000000800787c8                .L800787C8
                0x0000000080078818                .L80078818
                0x0000000080078844                .L80078844
                0x0000000080078874                .L80078874
                0x0000000080078884                .L80078884
                0x00000000800788a4                .L800788A4
                0x00000000800788b8                .L800788B8
                0x00000000800788d4                .L800788D4
                0x00000000800789c4                func_800789C4
                0x0000000080078cc8                func_80078CC8
                0x0000000080078f14                func_80078F14
                0x0000000080078f54                func_80078F54
                0x0000000080078ff0                func_80078FF0
                0x00000000800791d4                func_800791D4
                0x0000000080079270                func_80079270
                0x00000000800792c0                func_800792C0
                0x0000000080079378                func_80079378
                0x000000008007951c                func_8007951C
                0x0000000080079760                func_80079760
                0x0000000080079810                func_80079810
                0x00000000800798ec                func_800798EC
                0x0000000080079984                func_80079984
                0x0000000080079ab4                func_80079AB4
                0x0000000080079b28                func_80079B28
                0x0000000080079ce8                func_80079CE8
                0x0000000080079df8                func_80079DF8
                0x0000000080079eb8                func_80079EB8
                0x0000000080079f50                func_80079F50
                0x000000008007a090                func_8007A090
                0x000000008007a118                func_8007A118
                0x000000008007a190                func_8007A190
                0x000000008007a3cc                func_8007A3CC
                0x000000008007a4b0                func_8007A4B0
                0x000000008007a6a8                func_8007A6A8
                0x000000008007a720                func_8007A720
                0x000000008007a7c4                func_8007A7C4
                0x000000008007a84c                func_8007A84C
                0x000000008007a8b0                func_8007A8B0
                0x000000008007a964                .L8007A964
                0x000000008007a984                .L8007A984
                0x000000008007a9b4                .L8007A9B4
                0x000000008007a9c8                .L8007A9C8
                0x000000008007a9e8                .L8007A9E8
                0x000000008007aa18                .L8007AA18
                0x000000008007aa38                .L8007AA38
                0x000000008007aa58                .L8007AA58
                0x000000008007aa88                .L8007AA88
                0x000000008007aaa8                .L8007AAA8
                0x000000008007aac8                .L8007AAC8
                0x000000008007aaf8                .L8007AAF8
                0x000000008007ab18                .L8007AB18
                0x000000008007ab34                .L8007AB34
                0x000000008007ab44                func_8007AB44
                0x000000008007b60c                func_8007B60C
                0x000000008007b73c                func_8007B73C
                0x000000008007bb94                .L8007BB94
                0x000000008007bbb4                .L8007BBB4
                0x000000008007bbcc                .L8007BBCC
                0x000000008007bddc                .L8007BDDC
                0x000000008007bde8                .L8007BDE8
                0x000000008007be64                .L8007BE64
                0x000000008007be70                .L8007BE70
                0x000000008007bedc                .L8007BEDC
                0x000000008007bf18                .L8007BF18
                0x000000008007bf5c                .L8007BF5C
                0x000000008007bf98                .L8007BF98
                0x000000008007c080                .L8007C080
                0x000000008007c0c4                .L8007C0C4
                0x000000008007c2f0                .L8007C2F0
                0x000000008007c2f8                .L8007C2F8
                0x000000008007c328                .L8007C328
                0x000000008007c36c                .L8007C36C
                0x000000008007c390                .L8007C390
                0x000000008007c3d4                .L8007C3D4
                0x000000008007c3f4                .L8007C3F4
                0x000000008007c420                .L8007C420
                0x000000008007c464                .L8007C464
                0x000000008007c484                .L8007C484
                0x000000008007c6dc                .L8007C6DC
                0x000000008007cb64                .L8007CB64
                0x000000008007ccd0                func_8007CCD0
                0x000000008007cce0                func_8007CCE0
                0x000000008007cd68                func_8007CD68
                0x000000008007ce24                func_8007CE24
                0x000000008007ceb8                func_8007CEB8
                0x000000008007cfe0                func_8007CFE0
                0x000000008007d0dc                func_8007D0DC
                0x000000008007d0f4                func_8007D0F4
                0x000000008007d1e8                func_8007D1E8
                0x000000008007d290                func_8007D290
                0x000000008007d384                func_8007D384
                0x000000008007d3ec                func_8007D3EC
                0x000000008007d438                func_8007D438
                0x000000008007d520                func_8007D520
                0x000000008007d554                func_8007D554
                0x000000008007d880                func_8007D880
                0x000000008007db84                func_8007DB84
                0x000000008007df44                func_8007DF44
                0x000000008007e510                .L8007E510
                0x000000008007e5cc                .L8007E5CC
                0x000000008007e6a0                .L8007E6A0
                0x000000008007e6b4                .L8007E6B4
                0x000000008007e7a0                .L8007E7A0
                0x000000008007e8a4                .L8007E8A4
                0x000000008007e8b8                .L8007E8B8
                0x000000008007e94c                .L8007E94C
                0x000000008007ea14                func_8007EA14
                0x000000008007ee14                func_8007EE14
                0x000000008007ee70                func_8007EE70
                0x000000008007ef58                func_8007EF58
                0x000000008007f078                func_8007F078
                0x000000008007f37c                func_8007F37C
                0x000000008007f560                func_8007F560
                0x000000008007f9e0                func_8007F9E0
                0x000000008007fca0                func_8007FCA0
                0x000000008007ff28                func_8007FF28
                0x0000000080080190                func_80080190
                0x00000000800801d8                func_800801D8
                0x00000000800805b8                func_800805B8
                0x0000000080080818                func_80080818
                0x00000000800808d0                func_800808D0
                0x0000000080080aec                func_80080AEC
                0x0000000080080ed4                func_80080ED4
                0x0000000080080ff8                func_80080FF8
                0x000000008008105c                func_8008105C
                0x0000000080081260                func_80081260
                0x0000000080081478                func_80081478
                0x0000000080081584                func_80081584
                0x0000000080081644                func_80081644
                0x00000000800816ac                func_800816AC
                0x0000000080081720                func_80081720
                0x0000000080081790                func_80081790
                0x00000000800817d8                func_800817D8
                0x00000000800818c0                func_800818C0
                0x00000000800819a8                func_800819A8
                0x0000000080081b4c                .L80081B4C
                0x0000000080081b64                .L80081B64
                0x0000000080081ba8                .L80081BA8
                0x0000000080081bd8                .L80081BD8
                0x0000000080081c1c                .L80081C1C
                0x0000000080081cbc                func_80081CBC
                0x0000000080081cc8                func_80081CC8
                0x0000000080081cd4                func_80081CD4
                0x0000000080081ce4                func_80081CE4
                0x0000000080081cf0                func_80081CF0
                0x0000000080081cfc                func_80081CFC
                0x0000000080081d08                func_80081D08
                0x0000000080081d20                func_80081D20
                0x0000000080081e38                func_80081E38
                0x0000000080081fc8                func_80081FC8
                0x0000000080082024                func_80082024
                0x0000000080082088                func_80082088
                0x0000000080082184                func_80082184
                0x00000000800821b0                func_800821B0
                0x00000000800822b8                func_800822B8
                0x0000000080082380                func_80082380
                0x0000000080082820                func_80082820
                0x0000000080082cfc                func_80082CFC
                0x0000000080082e04                func_80082E04
                0x0000000080082f10                func_80082F10
                0x000000008008310c                func_8008310C
                0x0000000080083140                func_80083140
                0x00000000800831d0                func_800831D0
                0x0000000080083358                func_80083358
                0x0000000080083454                func_80083454
                0x0000000080083488                func_80083488
                0x0000000080083518                func_80083518
                0x00000000800836a0                func_800836A0
                0x000000008008379c                func_8008379C
                0x0000000080083810                func_80083810
                0x0000000080083878                func_80083878
                0x00000000800838e0                func_800838E0
                0x000000008008391c                func_8008391C
                0x0000000080083a04                func_80083A04
                0x0000000080083a74                func_80083A74
                0x0000000080083ae4                func_80083AE4
                0x0000000080083b5c                func_80083B5C
                0x0000000080083bd8                func_80083BD8
                0x0000000080083c54                func_80083C54
                0x0000000080083ccc                func_80083CCC
                0x0000000080083cf0                func_80083CF0
                0x0000000080083db8                func_80083DB8
                0x0000000080083e74                func_80083E74
                0x0000000080083fb0                func_80083FB0
                0x00000000800840a4                func_800840A4
                0x000000008008412c                func_8008412C
                0x00000000800842ac                func_800842AC
                0x00000000800843e0                func_800843E0
                0x00000000800844b8                func_800844B8
                0x00000000800846a8                func_800846A8
                0x0000000080084734                func_80084734
                0x000000008008486c                func_8008486C
                0x00000000800848a0                func_800848A0
                0x0000000080084924                func_80084924
                0x0000000080084974                func_80084974
                0x0000000080084a14                .L80084A14
                0x0000000080084af4                .L80084AF4
                0x0000000080084b28                .L80084B28
                0x0000000080084c18                .L80084C18
                0x0000000080084ca8                .L80084CA8
                0x0000000080084cc0                .L80084CC0
                0x0000000080084ce0                .L80084CE0
                0x0000000080084ce8                .L80084CE8
                0x0000000080084d18                func_80084D18
                0x0000000080084e7c                func_80084E7C
                0x0000000080084f38                func_80084F38
                0x0000000080085108                func_80085108
                0x0000000080085194                func_80085194
                0x00000000800852cc                func_800852CC
                0x0000000080085300                func_80085300
                0x0000000080085350                func_80085350
                0x00000000800853c8                func_800853C8
                0x00000000800854f4                .L800854F4
                0x000000008008555c                .L8008555C
                0x0000000080085588                .L80085588
                0x0000000080085678                .L80085678
                0x00000000800856e4                .L800856E4
                0x000000008008575c                .L8008575C
                0x00000000800857d4                .L800857D4
                0x00000000800857ec                .L800857EC
                0x000000008008580c                .L8008580C
                0x0000000080085814                .L80085814
                0x0000000080085844                func_80085844
                0x000000008008594c                func_8008594C
                0x00000000800859c4                func_800859C4
                0x0000000080085a4c                func_80085A4C
                0x0000000080085ae4                func_80085AE4
                0x0000000080085bac                func_80085BAC
                0x0000000080085d00                func_80085D00
                0x0000000080085e60                func_80085E60
                0x0000000080085eb0                func_80085EB0
                0x0000000080085f08                func_80085F08
                0x0000000080085f78                func_80085F78
                0x000000008008603c                func_8008603C
                0x00000000800860fc                func_800860FC
                0x00000000800862cc                func_800862CC
                0x0000000080086360                func_80086360
                0x00000000800865bc                func_800865BC
                0x0000000080086790                func_80086790
                0x0000000080086824                func_80086824
                0x0000000080086900                func_80086900
                0x0000000080086a20                func_80086A20
                0x0000000080086b74                func_80086B74
                0x0000000080086c7c                func_80086C7C
                0x0000000080086e18                .L80086E18
                0x0000000080086ef8                .L80086EF8
                0x0000000080086f6c                .L80086F6C
                0x0000000080087068                .L80087068
                0x0000000080087158                .L80087158
                0x00000000800871c0                .L800871C0
                0x0000000080087250                .L80087250
                0x0000000080087298                .L80087298
                0x00000000800872e0                .L800872E0
                0x00000000800872f4                .L800872F4
                0x0000000080087330                .L80087330
                0x00000000800874c0                .L800874C0
                0x00000000800874f0                .L800874F0
                0x0000000080087544                .L80087544
                0x0000000080087568                func_80087568
                0x0000000080087698                func_80087698
                0x0000000080087820                func_80087820
                0x0000000080087b4c                func_80087B4C
                0x0000000080087bdc                func_80087BDC
                0x0000000080087d2c                func_80087D2C
                0x0000000080087eac                func_80087EAC
                0x0000000080088010                func_80088010
                0x0000000080088164                func_80088164
                0x00000000800882e8                func_800882E8
                0x0000000080088408                func_80088408
                0x0000000080088518                func_80088518
                0x000000008008855c                func_8008855C
                0x00000000800886e0                func_800886E0
                0x0000000080088720                func_80088720
                0x00000000800887b0                func_800887B0
                0x00000000800887f0                func_800887F0
                0x0000000080088834                func_80088834
                0x0000000080088944                func_80088944
                0x0000000080088a54                func_80088A54
                0x0000000080088b08                func_80088B08
                0x0000000080088cb0                func_80088CB0
                0x0000000080088e38                func_80088E38
                0x0000000080088e90                func_80088E90
                0x0000000080089084                func_80089084
                0x00000000800891ec                func_800891EC
                0x0000000080089298                func_80089298
                0x0000000080089418                func_80089418
                0x00000000800896ac                func_800896AC
                0x0000000080089814                func_80089814
                0x0000000080089984                func_80089984
                0x0000000080089a10                func_80089A10
                0x0000000080089ef8                func_80089EF8
                0x000000008008a0f4                func_8008A0F4
                0x000000008008a32c                func_8008A32C
                0x000000008008a41c                func_8008A41C
                0x000000008008a50c                func_8008A50C
                0x000000008008a6e4                func_8008A6E4
                0x000000008008aa28                func_8008AA28
                0x000000008008ab68                func_8008AB68
                0x000000008008ad3c                func_8008AD3C
                0x000000008008ae78                func_8008AE78
                0x000000008008af04                func_8008AF04
                0x000000008008afe8                func_8008AFE8
                0x000000008008b284                func_8008B284
                0x000000008008b438                func_8008B438
                0x000000008008b548                func_8008B548
                0x000000008008b654                func_8008B654
                0x000000008008b7cc                func_8008B7CC
                0x000000008008b830                func_8008B830
                0x000000008008b9fc                func_8008B9FC
                0x000000008008bb64                func_8008BB64
                0x000000008008bc5c                func_8008BC5C
                0x000000008008bd6c                .L8008BD6C
                0x000000008008bda8                .L8008BDA8
                0x000000008008bea0                .L8008BEA0
                0x000000008008bec4                .L8008BEC4
                0x000000008008bf40                .L8008BF40
                0x000000008008bfa0                .L8008BFA0
                0x000000008008bfb0                func_8008BFB0
                0x000000008008bfe4                func_8008BFE4
                0x000000008008c038                func_8008C038
                0x000000008008c120                func_8008C120
                0x000000008008c304                func_8008C304
                0x000000008008c4a0                func_8008C4A0
                0x000000008008c4a8                func_8008C4A8
                0x000000008008c4b0                func_8008C4B0
                0x000000008008c4c0                func_8008C4C0
                0x000000008008c4c8                func_8008C4C8
                0x000000008008c4d0                func_8008C4D0
                0x000000008008c4d8                func_8008C4D8
                0x000000008008c4e0                func_8008C4E0
                0x000000008008c528                func_8008C528
                0x000000008008c710                func_8008C710
                0x000000008008ca90                func_8008CA90
                0x000000008008cc00                func_8008CC00
                0x000000008008cc90                func_8008CC90
                0x000000008008cdc4                func_8008CDC4
                0x000000008008cf10                func_8008CF10
                0x000000008008cf60                func_8008CF60
                0x000000008008cfe4                func_8008CFE4
                0x000000008008d0a8                func_8008D0A8
                0x000000008008d128                func_8008D128
                0x000000008008d1e8                func_8008D1E8
                0x000000008008d2b0                func_8008D2B0
                0x000000008008d320                func_8008D320
                0x000000008008d39c                func_8008D39C
                0x000000008008d418                func_8008D418
                0x000000008008d480                func_8008D480
                0x000000008008d510                func_8008D510
                0x000000008008d728                func_8008D728
                0x000000008008d730                func_8008D730
                0x000000008008d958                func_8008D958
                0x000000008008d960                func_8008D960
                0x000000008008d99c                func_8008D99C
                0x000000008008da24                func_8008DA24
                0x000000008008da4c                func_8008DA4C
                0x000000008008dc70                func_8008DC70
                0x000000008008dce0                func_8008DCE0
                0x000000008008de20                func_8008DE20
                0x000000008008de28                func_8008DE28
                0x000000008008de30                func_8008DE30
                0x000000008008debc                func_8008DEBC
                0x000000008008df20                func_8008DF20
                0x000000008008e1a0                func_8008E1A0
                0x000000008008e310                func_8008E310
                0x000000008008e3c0                func_8008E3C0
                0x000000008008e480                func_8008E480
                0x000000008008e790                func_8008E790
                0x000000008008e918                func_8008E918
                0x000000008008e948                func_8008E948
                0x000000008008ea4c                func_8008EA4C
                0x000000008008eb44                func_8008EB44
                0x000000008008ebf0                func_8008EBF0
                0x000000008008ecdc                func_8008ECDC
                0x000000008008edb0                func_8008EDB0
                0x000000008008ee38                .L8008EE38
                0x000000008008ee40                .L8008EE40
                0x000000008008ee60                .L8008EE60
                0x000000008008ee80                .L8008EE80
                0x000000008008eea0                .L8008EEA0
                0x000000008008eec0                .L8008EEC0
                0x000000008008eef8                func_8008EEF8
                0x000000008008efa8                func_8008EFA8
                0x000000008008f094                func_8008F094
                0x000000008008f108                func_8008F108
                0x000000008008f168                func_8008F168
                0x000000008008f220                func_8008F220
                0x000000008008f294                func_8008F294
                0x000000008008f2e8                func_8008F2E8
                0x000000008008f498                func_8008F498
                0x000000008008f734                func_8008F734
                0x000000008008f7e0                func_8008F7E0
                0x000000008008fa50                func_8008FA50
                0x000000008008fb20                func_8008FB20
                0x000000008008fd08                func_8008FD08
                0x0000000080090064                func_80090064
                0x00000000800902b0                func_800902B0
                0x0000000080090558                func_80090558
                0x00000000800905c4                .L800905C4
                0x0000000080090644                .L80090644
                0x0000000080090654                .L80090654
                0x0000000080090664                .L80090664
                0x0000000080090674                .L80090674
                0x000000008009067c                .L8009067C
                0x00000000800907e4                func_800907E4
                0x0000000080090894                .L80090894
                0x00000000800908cc                .L800908CC
                0x00000000800908f0                .L800908F0
                0x0000000080090914                .L80090914
                0x0000000080090938                .L80090938
                0x000000008009095c                .L8009095C
                0x0000000080090a88                func_80090A88
                0x0000000080090bfc                func_80090BFC
                0x0000000080090cdc                func_80090CDC
                0x0000000080090f48                func_80090F48
                0x0000000080091158                func_80091158
                0x00000000800911d8                func_800911D8
                0x0000000080091300                func_80091300
                0x00000000800913c0                func_800913C0
                0x0000000080091524                func_80091524
                0x000000008009159c                func_8009159C
                0x0000000080091664                func_80091664
                0x00000000800918d4                func_800918D4
                0x00000000800919c8                func_800919C8
                0x0000000080091bdc                func_80091BDC
                0x0000000080091c90                func_80091C90
                0x0000000080091d28                func_80091D28
                0x0000000080092028                func_80092028
                0x0000000080092114                func_80092114
                0x00000000800922d8                func_800922D8
                0x00000000800923c8                func_800923C8
                0x00000000800924f8                func_800924F8
                0x00000000800925d8                func_800925D8
                0x0000000080092660                func_80092660
                0x00000000800929b8                func_800929B8
                0x0000000080092e30                func_80092E30
                0x0000000080092f2c                func_80092F2C
                0x0000000080092fd4                func_80092FD4
                0x00000000800930ac                func_800930AC
                0x00000000800930e4                func_800930E4
                0x00000000800930ec                func_800930EC
                0x00000000800931cc                func_800931CC
                0x0000000080093230                .L80093230
                0x0000000080093244                .L80093244
                0x0000000080093258                .L80093258
                0x0000000080093264                .L80093264
                0x0000000080093274                func_80093274
                0x000000008009333c                func_8009333C
                0x0000000080093410                func_80093410
                0x000000008009349c                func_8009349C
                0x000000008009351c                func_8009351C
                0x00000000800935b8                func_800935B8
                0x0000000080093654                func_80093654
                0x0000000080093704                func_80093704
                0x0000000080093c10                func_80093C10
                0x0000000080093d38                func_80093D38
                0x0000000080093dec                .L80093DEC
                0x0000000080093e40                .L80093E40
                0x0000000080093e94                .L80093E94
                0x0000000080093f24                .L80093F24
                0x0000000080093fb0                .L80093FB0
                0x0000000080094048                .L80094048
                0x00000000800940e8                .L800940E8
                0x0000000080094164                .L80094164
                0x0000000080094190                .L80094190
                0x00000000800941b8                .L800941B8
                0x0000000080094258                .L80094258
                0x00000000800942dc                .L800942DC
                0x0000000080094384                .L80094384
                0x0000000080094470                .L80094470
                0x000000008009448c                .L8009448C
                0x0000000080094684                .L80094684
                0x0000000080094720                .L80094720
                0x0000000080094880                .L80094880
                0x000000008009494c                .L8009494C
                0x0000000080094c5c                func_80094C5C
                0x0000000080094cf8                func_80094CF8
                0x0000000080094d84                func_80094D84
                0x0000000080094e10                func_80094E10
                0x0000000080094eb8                func_80094EB8
                0x0000000080094f24                func_80094F24
                0x0000000080094fe4                func_80094FE4
                0x00000000800955f4                func_800955F4
                0x0000000080095928                func_80095928
                0x0000000080095a10                func_80095A10
                0x0000000080095a8c                func_80095A8C
                0x0000000080095fc8                func_80095FC8
                0x0000000080096058                func_80096058
                0x0000000080096104                func_80096104
                0x00000000800962c4                func_800962C4
                0x0000000080096478                func_80096478
                0x000000008009672c                func_8009672C
                0x000000008009685c                func_8009685C
                0x00000000800968ec                func_800968EC
                0x000000008009691c                func_8009691C
                0x00000000800969cc                func_800969CC
                0x00000000800969f4                func_800969F4
                0x00000000800969fc                func_800969FC
                0x0000000080096a04                func_80096A04
                0x0000000080096a0c                func_80096A0C
                0x0000000080096a14                func_80096A14
                0x0000000080096a1c                func_80096A1C
                0x0000000080096a70                func_80096A70
                0x0000000080096ac4                func_80096AC4
                0x0000000080096b18                func_80096B18
                0x0000000080096b70                func_80096B70
                0x0000000080096e14                func_80096E14
                0x000000008009705c                func_8009705C
                0x0000000080097108                func_80097108
                0x00000000800971a0                func_800971A0
                0x000000008009723c                func_8009723C
                0x00000000800972dc                func_800972DC
                0x0000000080097384                func_80097384
                0x0000000080097428                func_80097428
                0x0000000080097574                func_80097574
                0x00000000800977b8                func_800977B8
                0x0000000080097968                func_80097968
                0x0000000080097a74                func_80097A74
                0x0000000080097be8                .L80097BE8
                0x0000000080097d6c                .L80097D6C
                0x0000000080097dbc                .L80097DBC
                0x0000000080097e2c                .L80097E2C
                0x0000000080097ed0                .L80097ED0
                0x0000000080097f78                .L80097F78
                0x0000000080097fc4                .L80097FC4
                0x0000000080097fe4                .L80097FE4
                0x00000000800980fc                .L800980FC
                0x000000008009814c                .L8009814C
                0x000000008009819c                .L8009819C
                0x00000000800981d8                .L800981D8
                0x00000000800981f8                .L800981F8
                0x000000008009823c                .L8009823C
                0x00000000800982f0                .L800982F0
                0x000000008009834c                .L8009834C
                0x00000000800983a8                .L800983A8
                0x00000000800983e0                .L800983E0
                0x000000008009843c                .L8009843C
                0x0000000080098464                .L80098464
                0x00000000800984c8                .L800984C8
                0x00000000800984f0                .L800984F0
                0x00000000800985ec                .L800985EC
                0x00000000800986d8                .L800986D8
                0x00000000800986f8                .L800986F8
                0x000000008009871c                .L8009871C
                0x0000000080098748                .L80098748
                0x0000000080098760                .L80098760
                0x0000000080098794                .L80098794
                0x00000000800987d4                .L800987D4
                0x0000000080098830                .L80098830
                0x000000008009891c                .L8009891C
                0x0000000080098b38                .L80098B38
                0x0000000080098b50                func_80098B50
                0x0000000080098df0                osViBlack
                0x0000000080098e70                osViSwapBuffer
 build/asm/ultralib/initialize.s.o(.text)
 .text          0x0000000080098f50      0x520 build/asm/ultralib/initialize.s.o
                0x0000000080098f50                __osInitialize_common
                0x0000000080099460                func_80099460
                0x0000000080099468                func_80099468
 build/asm/ultralib/createthread.s.o(.text)
 .text          0x0000000080099470      0x1b0 build/asm/ultralib/createthread.s.o
                0x0000000080099470                osCreateThread
 build/asm/ultralib/startthread.s.o(.text)
 .text          0x0000000080099620      0x1a0 build/asm/ultralib/startthread.s.o
                0x0000000080099620                osStartThread
 build/asm/ultralib/vimgr.s.o(.text)
 .text          0x00000000800997c0      0x460 build/asm/ultralib/vimgr.s.o
                0x00000000800997c0                osCreateViManager
                0x00000000800999c0                func_800999C0
 build/asm/ultralib/visetmode.s.o(.text)
 .text          0x0000000080099c20       0xd0 build/asm/ultralib/visetmode.s.o
                0x0000000080099c20                osViSetMode
 build/asm/ultralib/pimgr.s.o(.text)
 .text          0x0000000080099cf0      0x330 build/asm/ultralib/pimgr.s.o
                0x0000000080099cf0                osCreatePiManager
                0x0000000080099f1c                func_80099F1C
 build/asm/ultralib/rmonmain.s.o(.text)
 .text          0x000000008009a020      0x440 build/asm/ultralib/rmonmain.s.o
                0x000000008009a020                func_8009A020
                0x000000008009a0cc                func_8009A0CC
                0x000000008009a17c                func_8009A17C
                0x000000008009a2b8                rmonMain
 build/asm/ultralib/setthreadpri.s.o(.text)
 .text          0x000000008009a460      0x130 build/asm/ultralib/setthreadpri.s.o
                0x000000008009a460                osSetThreadPri
 build/asm/ultralib/virtualtophysical.s.o(.text)
 .text          0x000000008009a590       0xc0 build/asm/ultralib/virtualtophysical.s.o
                0x000000008009a590                osVirtualToPhysical
 build/asm/9B250.s.o(.text)
 .text          0x000000008009a650    0x20460 build/asm/9B250.s.o
                0x000000008009a650                func_8009A650
                0x000000008009a6f0                func_8009A6F0
                0x000000008009a790                func_8009A790
                0x000000008009a9b0                func_8009A9B0
                0x000000008009aa80                func_8009AA80
                0x000000008009ab58                func_8009AB58
                0x000000008009ac14                func_8009AC14
                0x000000008009ad10                func_8009AD10
                0x000000008009aea0                func_8009AEA0
                0x000000008009aed0                func_8009AED0
                0x000000008009b014                func_8009B014
                0x000000008009b294                func_8009B294
                0x000000008009b2e0                func_8009B2E0
                0x000000008009b4f8                func_8009B4F8
                0x000000008009b5dc                func_8009B5DC
                0x000000008009b6e0                func_8009B6E0
                0x000000008009b790                func_8009B790
                0x000000008009b9d0                func_8009B9D0
                0x000000008009ba20                func_8009BA20
                0x000000008009ba74                func_8009BA74
                0x000000008009bab8                func_8009BAB8
                0x000000008009bae4                func_8009BAE4
                0x000000008009baec                func_8009BAEC
                0x000000008009bb24                func_8009BB24
                0x000000008009bb30                func_8009BB30
                0x000000008009bc80                func_8009BC80
                0x000000008009bce0                func_8009BCE0
                0x000000008009bd44                func_8009BD44
                0x000000008009be34                func_8009BE34
                0x000000008009bf4c                func_8009BF4C
                0x000000008009c010                func_8009C010
                0x000000008009c0b0                func_8009C0B0
                0x000000008009c140                func_8009C140
                0x000000008009c150                func_8009C150
                0x000000008009c420                func_8009C420
                0x000000008009c6ac                func_8009C6AC
                0x000000008009c704                .L8009C704
                0x000000008009c718                .L8009C718
                0x000000008009c73c                .L8009C73C
                0x000000008009c7cc                .L8009C7CC
                0x000000008009c894                .L8009C894
                0x000000008009c9fc                .L8009C9FC
                0x000000008009caec                .L8009CAEC
                0x000000008009cb08                .L8009CB08
                0x000000008009cb24                .L8009CB24
                0x000000008009cbbc                .L8009CBBC
                0x000000008009cbf4                .L8009CBF4
                0x000000008009ccb0                .L8009CCB0
                0x000000008009cd8c                .L8009CD8C
                0x000000008009cdc4                .L8009CDC4
                0x000000008009ce1c                .L8009CE1C
                0x000000008009ce4c                .L8009CE4C
                0x000000008009ce54                .L8009CE54
                0x000000008009ced8                func_8009CED8
                0x000000008009cf78                func_8009CF78
                0x000000008009cfec                .L8009CFEC
                0x000000008009d00c                .L8009D00C
                0x000000008009d02c                .L8009D02C
                0x000000008009d060                .L8009D060
                0x000000008009d074                .L8009D074
                0x000000008009d094                func_8009D094
                0x000000008009d150                .L8009D150
                0x000000008009d760                .L8009D760
                0x000000008009d7f0                .L8009D7F0
                0x000000008009d884                .L8009D884
                0x000000008009d930                .L8009D930
                0x000000008009dcb4                .L8009DCB4
                0x000000008009dd1c                .L8009DD1C
                0x000000008009de1c                .L8009DE1C
                0x000000008009de40                func_8009DE40
                0x000000008009e108                func_8009E108
                0x000000008009e230                func_8009E230
                0x000000008009e2a0                func_8009E2A0
                0x000000008009e2f0                func_8009E2F0
                0x000000008009e480                func_8009E480
                0x000000008009e4d0                func_8009E4D0
                0x000000008009e540                func_8009E540
                0x000000008009e938                func_8009E938
                0x000000008009eba0                func_8009EBA0
                0x000000008009ec00                func_8009EC00
                0x000000008009ec34                func_8009EC34
                0x000000008009ec98                func_8009EC98
                0x000000008009ecd8                func_8009ECD8
                0x000000008009ed40                func_8009ED40
                0x000000008009ed84                func_8009ED84
                0x000000008009ee70                func_8009EE70
                0x000000008009ee78                func_8009EE78
                0x000000008009ee80                func_8009EE80
                0x000000008009ee90                func_8009EE90
                0x000000008009f01c                func_8009F01C
                0x000000008009f1ac                func_8009F1AC
                0x000000008009f288                func_8009F288
                0x000000008009f6d4                func_8009F6D4
                0x000000008009f740                func_8009F740
                0x000000008009f748                func_8009F748
                0x000000008009f750                func_8009F750
                0x000000008009f860                func_8009F860
                0x000000008009f868                func_8009F868
                0x000000008009f870                func_8009F870
                0x000000008009f878                func_8009F878
                0x000000008009f9ac                func_8009F9AC
                0x000000008009fa60                func_8009FA60
                0x000000008009fb14                func_8009FB14
                0x000000008009fd08                func_8009FD08
                0x000000008009fda0                func_8009FDA0
                0x000000008009fdf0                func_8009FDF0
                0x000000008009fe30                func_8009FE30
                0x000000008009ff40                func_8009FF40
                0x000000008009ff80                func_8009FF80
                0x000000008009fff0                func_8009FFF0
                0x00000000800a0060                func_800A0060
                0x00000000800a006c                func_800A006C
                0x00000000800a0074                func_800A0074
                0x00000000800a0084                func_800A0084
                0x00000000800a008c                func_800A008C
                0x00000000800a00b4                func_800A00B4
                0x00000000800a00bc                func_800A00BC
                0x00000000800a295c                func_800A295C
                0x00000000800a2b7c                func_800A2B7C
                0x00000000800a4040                func_800A4040
                0x00000000800a4170                func_800A4170
                0x00000000800a4188                func_800A4188
                0x00000000800a4190                func_800A4190
                0x00000000800a41a4                func_800A41A4
                0x00000000800a41b0                func_800A41B0
                0x00000000800a41d8                func_800A41D8
                0x00000000800a41e0                func_800A41E0
                0x00000000800a4280                func_800A4280
                0x00000000800a42bc                func_800A42BC
                0x00000000800a4308                func_800A4308
                0x00000000800a4354                func_800A4354
                0x00000000800a4390                func_800A4390
                0x00000000800a43dc                func_800A43DC
                0x00000000800a4448                func_800A4448
                0x00000000800a4488                func_800A4488
                0x00000000800a44f8                func_800A44F8
                0x00000000800a45ac                func_800A45AC
                0x00000000800a45f0                func_800A45F0
                0x00000000800a4670                func_800A4670
                0x00000000800a47c0                func_800A47C0
                0x00000000800a4910                func_800A4910
                0x00000000800a4b9c                func_800A4B9C
                0x00000000800a4c10                func_800A4C10
                0x00000000800a4d74                func_800A4D74
                0x00000000800a4df0                func_800A4DF0
                0x00000000800a4e4c                func_800A4E4C
                0x00000000800a4ea0                func_800A4EA0
                0x00000000800a50b4                func_800A50B4
                0x00000000800a5110                func_800A5110
                0x00000000800a517c                func_800A517C
                0x00000000800a51d0                func_800A51D0
                0x00000000800a55b4                func_800A55B4
                0x00000000800a5640                func_800A5640
                0x00000000800a56bc                func_800A56BC
                0x00000000800a5710                func_800A5710
                0x00000000800a5720                func_800A5720
                0x00000000800a57f0                func_800A57F0
                0x00000000800a5884                func_800A5884
                0x00000000800a58fc                func_800A58FC
                0x00000000800a5904                func_800A5904
                0x00000000800a5b34                func_800A5B34
                0x00000000800a5bbc                func_800A5BBC
                0x00000000800a5c30                func_800A5C30
                0x00000000800a5c88                func_800A5C88
                0x00000000800a5cd4                func_800A5CD4
                0x00000000800a5d30                func_800A5D30
                0x00000000800a5e90                func_800A5E90
                0x00000000800a5eb0                func_800A5EB0
                0x00000000800a5ed0                func_800A5ED0
                0x00000000800a5ef0                func_800A5EF0
                0x00000000800a6620                .L800A6620
                0x00000000800a6630                .L800A6630
                0x00000000800a6640                .L800A6640
                0x00000000800a6668                .L800A6668
                0x00000000800a66c4                .L800A66C4
                0x00000000800a6830                .L800A6830
                0x00000000800a68a0                .L800A68A0
                0x00000000800a68c8                .L800A68C8
                0x00000000800a690c                .L800A690C
                0x00000000800a6a90                func_800A6A90
                0x00000000800a6b9c                func_800A6B9C
                0x00000000800a6be8                func_800A6BE8
                0x00000000800a6c00                func_800A6C00
                0x00000000800a6d90                func_800A6D90
                0x00000000800a6da0                func_800A6DA0
                0x00000000800a6db0                func_800A6DB0
                0x00000000800a6dc0                func_800A6DC0
                0x00000000800a6e80                func_800A6E80
                0x00000000800a6f10                func_800A6F10
                0x00000000800a6f90                func_800A6F90
                0x00000000800a7010                func_800A7010
                0x00000000800a7070                func_800A7070
                0x00000000800a7150                func_800A7150
                0x00000000800a7210                func_800A7210
                0x00000000800a7260                func_800A7260
                0x00000000800a72f0                func_800A72F0
                0x00000000800a72f8                func_800A72F8
                0x00000000800a75b0                func_800A75B0
                0x00000000800a763c                func_800A763C
                0x00000000800a7810                func_800A7810
                0x00000000800a7828                func_800A7828
                0x00000000800a7830                func_800A7830
                0x00000000800a7840                func_800A7840
                0x00000000800a784c                func_800A784C
                0x00000000800a7854                func_800A7854
                0x00000000800a7860                func_800A7860
                0x00000000800a7be0                func_800A7BE0
                0x00000000800a7bf0                func_800A7BF0
                0x00000000800a7d00                func_800A7D00
                0x00000000800a7e20                func_800A7E20
                0x00000000800a7e78                func_800A7E78
                0x00000000800a7ec4                func_800A7EC4
                0x00000000800a7f00                func_800A7F00
                0x00000000800a80e0                func_800A80E0
                0x00000000800a8480                func_800A8480
                0x00000000800a8794                .L800A8794
                0x00000000800a87d4                .L800A87D4
                0x00000000800a8814                .L800A8814
                0x00000000800a8860                .L800A8860
                0x00000000800a88ac                .L800A88AC
                0x00000000800a88d0                .L800A88D0
                0x00000000800a8950                func_800A8950
                0x00000000800a8c60                func_800A8C60
                0x00000000800a8cc0                func_800A8CC0
                0x00000000800a8da4                func_800A8DA4
                0x00000000800a8db4                func_800A8DB4
                0x00000000800a8dbc                func_800A8DBC
                0x00000000800a8e10                func_800A8E10
                0x00000000800a8ea0                func_800A8EA0
                0x00000000800a8f04                func_800A8F04
                0x00000000800a8f88                func_800A8F88
                0x00000000800a9060                func_800A9060
                0x00000000800a9120                func_800A9120
                0x00000000800a9170                func_800A9170
                0x00000000800a91d4                func_800A91D4
                0x00000000800a9210                func_800A9210
                0x00000000800a924c                func_800A924C
                0x00000000800a9290                func_800A9290
                0x00000000800a94bc                func_800A94BC
                0x00000000800a9714                func_800A9714
                0x00000000800a97a4                func_800A97A4
                0x00000000800a97c0                func_800A97C0
                0x00000000800a987c                func_800A987C
                0x00000000800a9904                func_800A9904
                0x00000000800a9b00                func_800A9B00
                0x00000000800a9bc8                func_800A9BC8
                0x00000000800a9cec                func_800A9CEC
                0x00000000800a9ef0                func_800A9EF0
                0x00000000800a9f0c                func_800A9F0C
                0x00000000800aa07c                func_800AA07C
                0x00000000800aa0f0                .L800AA0F0
                0x00000000800aa190                .L800AA190
                0x00000000800aa1c0                .L800AA1C0
                0x00000000800aa1dc                .L800AA1DC
                0x00000000800aa1e4                .L800AA1E4
                0x00000000800aa208                .L800AA208
                0x00000000800aa224                .L800AA224
                0x00000000800aa25c                .L800AA25C
                0x00000000800aa2e0                .L800AA2E0
                0x00000000800aa304                func_800AA304
                0x00000000800aa3b4                func_800AA3B4
                0x00000000800aa48c                func_800AA48C
                0x00000000800aa4d0                func_800AA4D0
                0x00000000800aa4d8                func_800AA4D8
                0x00000000800aa5a0                func_800AA5A0
                0x00000000800aa5d8                func_800AA5D8
                0x00000000800aa64c                func_800AA64C
                0x00000000800aa684                func_800AA684
                0x00000000800aa780                func_800AA780
                0x00000000800aa840                func_800AA840
                0x00000000800aa898                func_800AA898
                0x00000000800aa8e4                func_800AA8E4
                0x00000000800aa920                func_800AA920
                0x00000000800aaa10                func_800AAA10
                0x00000000800aad80                func_800AAD80
                0x00000000800aad90                func_800AAD90
                0x00000000800aadd0                func_800AADD0
                0x00000000800aaf00                func_800AAF00
                0x00000000800aaf40                func_800AAF40
                0x00000000800ab050                func_800AB050
                0x00000000800ab1e0                func_800AB1E0
                0x00000000800ab214                func_800AB214
                0x00000000800ab220                func_800AB220
                0x00000000800ab230                func_800AB230
                0x00000000800ab23c                func_800AB23C
                0x00000000800ab250                func_800AB250
                0x00000000800ab4b0                func_800AB4B0
                0x00000000800ab4f8                .L800AB4F8
                0x00000000800ab508                .L800AB508
                0x00000000800ab52c                .L800AB52C
                0x00000000800ab594                .L800AB594
                0x00000000800ab634                .L800AB634
                0x00000000800ab77c                .L800AB77C
                0x00000000800ab844                .L800AB844
                0x00000000800ab85c                .L800AB85C
                0x00000000800ab874                .L800AB874
                0x00000000800ab8a4                .L800AB8A4
                0x00000000800ab944                .L800AB944
                0x00000000800ab9fc                .L800AB9FC
                0x00000000800aba78                .L800ABA78
                0x00000000800abaa4                .L800ABAA4
                0x00000000800abad4                .L800ABAD4
                0x00000000800abb4c                .L800ABB4C
                0x00000000800abba0                .L800ABBA0
                0x00000000800abbc0                .L800ABBC0
                0x00000000800abc24                func_800ABC24
                0x00000000800abd2c                func_800ABD2C
                0x00000000800abe34                func_800ABE34
                0x00000000800abf04                .L800ABF04
                0x00000000800ac418                .L800AC418
                0x00000000800ac4b4                .L800AC4B4
                0x00000000800ac544                .L800AC544
                0x00000000800ac5d4                .L800AC5D4
                0x00000000800ac64c                .L800AC64C
                0x00000000800ac6cc                .L800AC6CC
                0x00000000800ac774                .L800AC774
                0x00000000800ac900                .L800AC900
                0x00000000800ac910                .L800AC910
                0x00000000800ac9b4                .L800AC9B4
                0x00000000800aca98                .L800ACA98
                0x00000000800acacc                func_800ACACC
                0x00000000800acb6c                func_800ACB6C
                0x00000000800acc08                func_800ACC08
                0x00000000800accf4                func_800ACCF4
                0x00000000800acd7c                func_800ACD7C
                0x00000000800acf38                func_800ACF38
                0x00000000800acfe4                func_800ACFE4
                0x00000000800ad028                func_800AD028
                0x00000000800ad0a4                func_800AD0A4
                0x00000000800ad21c                func_800AD21C
                0x00000000800ad33c                func_800AD33C
                0x00000000800ad424                func_800AD424
                0x00000000800ad48c                func_800AD48C
                0x00000000800ad494                func_800AD494
                0x00000000800ad534                func_800AD534
                0x00000000800ad53c                func_800AD53C
                0x00000000800ad5b8                func_800AD5B8
                0x00000000800ad6f4                func_800AD6F4
                0x00000000800ad740                func_800AD740
                0x00000000800ad7dc                func_800AD7DC
                0x00000000800ad880                func_800AD880
                0x00000000800ada0c                func_800ADA0C
                0x00000000800ada90                func_800ADA90
                0x00000000800adb60                func_800ADB60
                0x00000000800adbd0                func_800ADBD0
                0x00000000800adca0                func_800ADCA0
                0x00000000800adda0                func_800ADDA0
                0x00000000800ade90                func_800ADE90
                0x00000000800adf70                func_800ADF70
                0x00000000800ae1a0                func_800AE1A0
                0x00000000800ae2d0                func_800AE2D0
                0x00000000800ae370                func_800AE370
                0x00000000800ae4c0                func_800AE4C0
                0x00000000800ae5a0                func_800AE5A0
                0x00000000800ae6a0                func_800AE6A0
                0x00000000800ae740                func_800AE740
                0x00000000800ae854                func_800AE854
                0x00000000800ae8dc                .L800AE8DC
                0x00000000800ae8f0                .L800AE8F0
                0x00000000800ae904                .L800AE904
                0x00000000800ae918                .L800AE918
                0x00000000800ae92c                .L800AE92C
                0x00000000800ae940                .L800AE940
                0x00000000800aee18                func_800AEE18
                0x00000000800aef3c                func_800AEF3C
                0x00000000800af008                func_800AF008
                0x00000000800af0bc                func_800AF0BC
                0x00000000800af124                func_800AF124
                0x00000000800af18c                func_800AF18C
                0x00000000800af1e0                func_800AF1E0
                0x00000000800af2e0                func_800AF2E0
                0x00000000800af490                func_800AF490
                0x00000000800af510                func_800AF510
                0x00000000800afbb8                func_800AFBB8
                0x00000000800b01f4                func_800B01F4
                0x00000000800b0504                func_800B0504
                0x00000000800b06f0                func_800B06F0
                0x00000000800b09c0                func_800B09C0
                0x00000000800b0a10                .L800B0A10
                0x00000000800b0a24                .L800B0A24
                0x00000000800b0a84                .L800B0A84
                0x00000000800b0ac8                .L800B0AC8
                0x00000000800b0ae4                .L800B0AE4
                0x00000000800b0af8                .L800B0AF8
                0x00000000800b0b50                func_800B0B50
                0x00000000800b0c68                .L800B0C68
                0x00000000800b0e4c                .L800B0E4C
                0x00000000800b10a8                .L800B10A8
                0x00000000800b1124                .L800B1124
                0x00000000800b1170                .L800B1170
                0x00000000800b11ac                .L800B11AC
                0x00000000800b12d8                func_800B12D8
                0x00000000800b1484                func_800B1484
                0x00000000800b18c4                func_800B18C4
                0x00000000800b1a1c                func_800B1A1C
                0x00000000800b1a64                func_800B1A64
                0x00000000800b1d5c                func_800B1D5C
                0x00000000800b1e50                func_800B1E50
                0x00000000800b1f70                func_800B1F70
                0x00000000800b1ff0                func_800B1FF0
                0x00000000800b2154                func_800B2154
                0x00000000800b21d0                func_800B21D0
                0x00000000800b2220                func_800B2220
                0x00000000800b23e4                func_800B23E4
                0x00000000800b24fc                func_800B24FC
                0x00000000800b2740                func_800B2740
                0x00000000800b2948                func_800B2948
                0x00000000800b2a60                func_800B2A60
                0x00000000800b2b90                func_800B2B90
                0x00000000800b2cc8                func_800B2CC8
                0x00000000800b2d64                func_800B2D64
                0x00000000800b2da0                func_800B2DA0
                0x00000000800b2fe0                func_800B2FE0
                0x00000000800b3260                func_800B3260
                0x00000000800b3310                func_800B3310
                0x00000000800b3ba4                func_800B3BA4
                0x00000000800b3c58                .L800B3C58
                0x00000000800b3cac                .L800B3CAC
                0x00000000800b3ebc                .L800B3EBC
                0x00000000800b40b0                .L800B40B0
                0x00000000800b42c4                .L800B42C4
                0x00000000800b43f0                .L800B43F0
                0x00000000800b4454                .L800B4454
                0x00000000800b44fc                .L800B44FC
                0x00000000800b4550                func_800B4550
                0x00000000800b45b0                func_800B45B0
                0x00000000800b4620                func_800B4620
                0x00000000800b469c                func_800B469C
                0x00000000800b4714                func_800B4714
                0x00000000800b47fc                func_800B47FC
                0x00000000800b4910                func_800B4910
                0x00000000800b4a00                func_800B4A00
                0x00000000800b4ab0                func_800B4AB0
                0x00000000800b51fc                func_800B51FC
                0x00000000800b52f4                func_800B52F4
                0x00000000800b5410                func_800B5410
                0x00000000800b5530                func_800B5530
                0x00000000800b5570                func_800B5570
                0x00000000800b5580                func_800B5580
                0x00000000800b55f0                func_800B55F0
                0x00000000800b56a0                func_800B56A0
                0x00000000800b5780                func_800B5780
                0x00000000800b57e0                func_800B57E0
                0x00000000800b5840                func_800B5840
                0x00000000800b585c                func_800B585C
                0x00000000800b5900                func_800B5900
                0x00000000800b5990                func_800B5990
                0x00000000800b5a1c                func_800B5A1C
                0x00000000800b5ab8                func_800B5AB8
                0x00000000800b5b68                func_800B5B68
                0x00000000800b5c18                func_800B5C18
                0x00000000800b5d84                func_800B5D84
                0x00000000800b5ee4                func_800B5EE4
                0x00000000800b5fa8                func_800B5FA8
                0x00000000800b6068                func_800B6068
                0x00000000800b60dc                func_800B60DC
                0x00000000800b6250                func_800B6250
                0x00000000800b6370                func_800B6370
                0x00000000800b64a8                func_800B64A8
                0x00000000800b657c                func_800B657C
                0x00000000800b6680                func_800B6680
                0x00000000800b670c                func_800B670C
                0x00000000800b679c                func_800B679C
                0x00000000800b68e0                func_800B68E0
                0x00000000800b6a24                func_800B6A24
                0x00000000800b6d3c                func_800B6D3C
                0x00000000800b6db8                func_800B6DB8
                0x00000000800b6f20                func_800B6F20
                0x00000000800b71f0                func_800B71F0
                0x00000000800b71fc                func_800B71FC
                0x00000000800b7204                func_800B7204
                0x00000000800b7210                func_800B7210
                0x00000000800b73ac                func_800B73AC
                0x00000000800b76b8                func_800B76B8
                0x00000000800b7738                func_800B7738
                0x00000000800b778c                func_800B778C
                0x00000000800b7794                func_800B7794
                0x00000000800b779c                func_800B779C
                0x00000000800b7894                func_800B7894
                0x00000000800b7a20                func_800B7A20
                0x00000000800b7a28                func_800B7A28
                0x00000000800b7a30                func_800B7A30
                0x00000000800b7a38                func_800B7A38
                0x00000000800b7a58                func_800B7A58
                0x00000000800b7a60                func_800B7A60
                0x00000000800b7a80                func_800B7A80
                0x00000000800b7a88                func_800B7A88
                0x00000000800b7ab8                func_800B7AB8
                0x00000000800b7b10                func_800B7B10
                0x00000000800b7bb0                func_800B7BB0
                0x00000000800b7c50                func_800B7C50
                0x00000000800b7c70                func_800B7C70
                0x00000000800b7cd0                func_800B7CD0
                0x00000000800b7cf0                func_800B7CF0
                0x00000000800b7d00                func_800B7D00
                0x00000000800b8260                func_800B8260
                0x00000000800b8294                func_800B8294
                0x00000000800b8320                .L800B8320
                0x00000000800b8354                .L800B8354
                0x00000000800b8388                .L800B8388
                0x00000000800b83b4                .L800B83B4
                0x00000000800b83e0                .L800B83E0
                0x00000000800b840c                .L800B840C
                0x00000000800b847c                .L800B847C
                0x00000000800b84f8                .L800B84F8
                0x00000000800b8594                func_800B8594
                0x00000000800b8890                func_800B8890
                0x00000000800b8b1c                func_800B8B1C
                0x00000000800b8d80                func_800B8D80
                0x00000000800b8e98                func_800B8E98
                0x00000000800b8f90                func_800B8F90
                0x00000000800b92c0                func_800B92C0
                0x00000000800b9904                func_800B9904
                0x00000000800b9a08                func_800B9A08
                0x00000000800ba190                func_800BA190
                0x00000000800ba1fc                func_800BA1FC
                0x00000000800ba264                func_800BA264
                0x00000000800ba48c                func_800BA48C
                0x00000000800ba650                func_800BA650
                0x00000000800ba660                func_800BA660
                0x00000000800ba684                func_800BA684
                0x00000000800ba710                func_800BA710
                0x00000000800ba7f0                func_800BA7F0
                0x00000000800ba894                func_800BA894
                0x00000000800ba9e0                func_800BA9E0
                0x00000000800baab0                main_TEXT_END = .
                0x00000000000ba6b0                main_TEXT_SIZE = ABSOLUTE ((main_TEXT_END - main_TEXT_START))
                0x00000000800baab0                main_DATA_START = .
                0x00000000800baab0                BB6B0_data__s = .
 build/asm/data/BB6B0.data.s.o(.data)
 .data          0x00000000800baab0    0x2ed00 build/asm/data/BB6B0.data.s.o
                0x00000000800baab0                D_800BAAB0
                0x00000000800bbeb0                D_800BBEB0
                0x00000000800bccd0                D_800BCCD0
                0x00000000800be4d0                D_800BE4D0
                0x00000000800be4d4                D_800BE4D4
                0x00000000800be4d8                D_800BE4D8
                0x00000000800be4dc                D_800BE4DC
                0x00000000800be4e0                D_800BE4E0
                0x00000000800be4e4                D_800BE4E4
                0x00000000800be4e8                D_800BE4E8
                0x00000000800be4ec                D_800BE4EC
                0x00000000800be4f0                D_800BE4F0
                0x00000000800be4f4                D_800BE4F4
                0x00000000800be4f8                D_800BE4F8
                0x00000000800be4fc                D_800BE4FC
                0x00000000800be500                D_800BE500
                0x00000000800be504                D_800BE504
                0x00000000800be508                D_800BE508
                0x00000000800be50c                D_800BE50C
                0x00000000800be510                D_800BE510
                0x00000000800be514                D_800BE514
                0x00000000800be518                D_800BE518
                0x00000000800be51c                D_800BE51C
                0x00000000800be520                D_800BE520
                0x00000000800be524                D_800BE524
                0x00000000800be528                D_800BE528
                0x00000000800be52c                D_800BE52C
                0x00000000800be530                D_800BE530
                0x00000000800be534                D_800BE534
                0x00000000800be538                D_800BE538
                0x00000000800be53c                D_800BE53C
                0x00000000800be540                D_800BE540
                0x00000000800be544                D_800BE544
                0x00000000800be548                D_800BE548
                0x00000000800be54c                D_800BE54C
                0x00000000800be550                D_800BE550
                0x00000000800be554                D_800BE554
                0x00000000800be558                D_800BE558
                0x00000000800be55c                D_800BE55C
                0x00000000800be560                D_800BE560
                0x00000000800be564                D_800BE564
                0x00000000800be568                D_800BE568
                0x00000000800be56c                D_800BE56C
                0x00000000800be570                D_800BE570
                0x00000000800be574                D_800BE574
                0x00000000800be578                D_800BE578
                0x00000000800be57c                D_800BE57C
                0x00000000800be580                D_800BE580
                0x00000000800be584                D_800BE584
                0x00000000800be588                D_800BE588
                0x00000000800be58c                D_800BE58C
                0x00000000800be590                D_800BE590
                0x00000000800be594                D_800BE594
                0x00000000800be598                D_800BE598
                0x00000000800be59c                D_800BE59C
                0x00000000800be5a0                D_800BE5A0
                0x00000000800be5a4                D_800BE5A4
                0x00000000800be5a8                D_800BE5A8
                0x00000000800be5ac                D_800BE5AC
                0x00000000800be5b0                D_800BE5B0
                0x00000000800be5b4                D_800BE5B4
                0x00000000800be5b8                D_800BE5B8
                0x00000000800be5bc                D_800BE5BC
                0x00000000800be5c0                D_800BE5C0
                0x00000000800be5c4                D_800BE5C4
                0x00000000800be5c8                D_800BE5C8
                0x00000000800be5d0                D_800BE5D0
                0x00000000800be5d4                D_800BE5D4
                0x00000000800be5d8                D_800BE5D8
                0x00000000800be5dc                D_800BE5DC
                0x00000000800be5e0                D_800BE5E0
                0x00000000800be5e4                D_800BE5E4
                0x00000000800be5e8                D_800BE5E8
                0x00000000800be5ec                D_800BE5EC
                0x00000000800be5f0                D_800BE5F0
                0x00000000800be5f4                D_800BE5F4
                0x00000000800be5f8                D_800BE5F8
                0x00000000800be5fc                D_800BE5FC
                0x00000000800be610                D_800BE610
                0x00000000800be614                D_800BE614
                0x00000000800be618                D_800BE618
                0x00000000800be61c                D_800BE61C
                0x00000000800be620                D_800BE620
                0x00000000800be62c                D_800BE62C
                0x00000000800be630                D_800BE630
                0x00000000800be634                D_800BE634
                0x00000000800be638                D_800BE638
                0x00000000800be63c                D_800BE63C
                0x00000000800be644                D_800BE644
                0x00000000800be648                D_800BE648
                0x00000000800be64c                D_800BE64C
                0x00000000800be650                D_800BE650
                0x00000000800be654                D_800BE654
                0x00000000800be658                D_800BE658
                0x00000000800be65c                D_800BE65C
                0x00000000800be660                D_800BE660
                0x00000000800be664                D_800BE664
                0x00000000800be668                D_800BE668
                0x00000000800be66c                D_800BE66C
                0x00000000800be670                D_800BE670
                0x00000000800be674                D_800BE674
                0x00000000800be678                D_800BE678
                0x00000000800be6a4                D_800BE6A4
                0x00000000800be6a8                D_800BE6A8
                0x00000000800be6ac                D_800BE6AC
                0x00000000800be6b4                D_800BE6B4
                0x00000000800be6b8                D_800BE6B8
                0x00000000800be6c0                D_800BE6C0
                0x00000000800be6c4                D_800BE6C4
                0x00000000800be6c8                D_800BE6C8
                0x00000000800be6cc                D_800BE6CC
                0x00000000800be6d0                D_800BE6D0
                0x00000000800be6d4                D_800BE6D4
                0x00000000800be6d8                D_800BE6D8
                0x00000000800be6dc                D_800BE6DC
                0x00000000800be6e0                D_800BE6E0
                0x00000000800be6e4                D_800BE6E4
                0x00000000800be6e8                D_800BE6E8
                0x00000000800be6ec                D_800BE6EC
                0x00000000800be6f0                D_800BE6F0
                0x00000000800be6f8                D_800BE6F8
                0x00000000800be6fc                D_800BE6FC
                0x00000000800be700                D_800BE700
                0x00000000800be704                D_800BE704
                0x00000000800be708                D_800BE708
                0x00000000800be70c                D_800BE70C
                0x00000000800be710                D_800BE710
                0x00000000800be714                D_800BE714
                0x00000000800be71c                D_800BE71C
                0x00000000800be720                D_800BE720
                0x00000000800be724                D_800BE724
                0x00000000800be728                D_800BE728
                0x00000000800be72c                D_800BE72C
                0x00000000800be730                D_800BE730
                0x00000000800be734                D_800BE734
                0x00000000800be738                D_800BE738
                0x00000000800be73c                D_800BE73C
                0x00000000800be754                D_800BE754
                0x00000000800be760                D_800BE760
                0x00000000800be764                D_800BE764
                0x00000000800be768                D_800BE768
                0x00000000800be770                D_800BE770
                0x00000000800be774                D_800BE774
                0x00000000800be77c                D_800BE77C
                0x00000000800be788                D_800BE788
                0x00000000800be78c                D_800BE78C
                0x00000000800be794                D_800BE794
                0x00000000800be79c                D_800BE79C
                0x00000000800be7a4                D_800BE7A4
                0x00000000800be7ac                D_800BE7AC
                0x00000000800be7b4                D_800BE7B4
                0x00000000800be7bc                D_800BE7BC
                0x00000000800be7c4                D_800BE7C4
                0x00000000800be7d0                D_800BE7D0
                0x00000000800be7d8                D_800BE7D8
                0x00000000800be7dc                D_800BE7DC
                0x00000000800be7e4                D_800BE7E4
                0x00000000800be7ec                D_800BE7EC
                0x00000000800be7f4                D_800BE7F4
                0x00000000800be7fc                D_800BE7FC
                0x00000000800be804                D_800BE804
                0x00000000800be810                D_800BE810
                0x00000000800be818                D_800BE818
                0x00000000800be81c                D_800BE81C
                0x00000000800be824                D_800BE824
                0x00000000800be82c                D_800BE82C
                0x00000000800be834                D_800BE834
                0x00000000800be83c                D_800BE83C
                0x00000000800be840                D_800BE840
                0x00000000800be848                D_800BE848
                0x00000000800be8d0                D_800BE8D0
                0x00000000800be8dc                D_800BE8DC
                0x00000000800be8e0                D_800BE8E0
                0x00000000800be8e4                D_800BE8E4
                0x00000000800be8f8                D_800BE8F8
                0x00000000800be904                D_800BE904
                0x00000000800be910                D_800BE910
                0x00000000800be91c                D_800BE91C
                0x00000000800be924                D_800BE924
                0x00000000800be930                D_800BE930
                0x00000000800be934                D_800BE934
                0x00000000800be93c                D_800BE93C
                0x00000000800be948                D_800BE948
                0x00000000800be954                D_800BE954
                0x00000000800be958                D_800BE958
                0x00000000800be95c                D_800BE95C
                0x00000000800be960                D_800BE960
                0x00000000800be968                D_800BE968
                0x00000000800be96c                D_800BE96C
                0x00000000800be970                D_800BE970
                0x00000000800be97c                D_800BE97C
                0x00000000800be988                D_800BE988
                0x00000000800be98c                D_800BE98C
                0x00000000800be990                D_800BE990
                0x00000000800be9a4                D_800BE9A4
                0x00000000800be9b0                D_800BE9B0
                0x00000000800be9bc                D_800BE9BC
                0x00000000800be9c4                D_800BE9C4
                0x00000000800be9cc                D_800BE9CC
                0x00000000800be9d8                D_800BE9D8
                0x00000000800be9dc                D_800BE9DC
                0x00000000800be9e4                D_800BE9E4
                0x00000000800beacc                D_800BEACC
                0x00000000800beb64                D_800BEB64
                0x00000000800bec64                D_800BEC64
                0x00000000800bedcc                D_800BEDCC
                0x00000000800bee98                D_800BEE98
                0x00000000800beeec                D_800BEEEC
                0x00000000800beff0                D_800BEFF0
                0x00000000800bf128                D_800BF128
                0x00000000800bf260                D_800BF260
                0x00000000800bf2bc                D_800BF2BC
                0x00000000800bf428                D_800BF428
                0x00000000800bf5d0                D_800BF5D0
                0x00000000800bf6ac                D_800BF6AC
                0x00000000800bf7ac                D_800BF7AC
                0x00000000800bf864                D_800BF864
                0x00000000800bf9dc                D_800BF9DC
                0x00000000800bfab8                D_800BFAB8
                0x00000000800bfbe4                D_800BFBE4
                0x00000000800bfd7c                D_800BFD7C
                0x00000000800bfeb4                D_800BFEB4
                0x00000000800c0034                D_800C0034
                0x00000000800c0090                D_800C0090
                0x00000000800c01f8                D_800C01F8
                0x00000000800c02bc                D_800C02BC
                0x00000000800c03f0                D_800C03F0
                0x00000000800c04fc                D_800C04FC
                0x00000000800c0534                D_800C0534
                0x00000000800c0638                D_800C0638
                0x00000000800c06e0                D_800C06E0
                0x00000000800c0740                D_800C0740
                0x00000000800c07e0                D_800C07E0
                0x00000000800c085c                D_800C085C
                0x00000000800c08c0                D_800C08C0
                0x00000000800c0a54                D_800C0A54
                0x00000000800c0ad8                D_800C0AD8
                0x00000000800c0d2c                D_800C0D2C
                0x00000000800c0d34                D_800C0D34
                0x00000000800c0d3c                D_800C0D3C
                0x00000000800c0d44                D_800C0D44
                0x00000000800c0d4c                D_800C0D4C
                0x00000000800c0d58                D_800C0D58
                0x00000000800c0d5c                D_800C0D5C
                0x00000000800c0d64                D_800C0D64
                0x00000000800c0d6c                D_800C0D6C
                0x00000000800c0d74                D_800C0D74
                0x00000000800c0d7c                D_800C0D7C
                0x00000000800c0d84                D_800C0D84
                0x00000000800c0d8c                D_800C0D8C
                0x00000000800c0d94                D_800C0D94
                0x00000000800c0d9c                D_800C0D9C
                0x00000000800c0da4                D_800C0DA4
                0x00000000800c0dac                D_800C0DAC
                0x00000000800c0db4                D_800C0DB4
                0x00000000800c0dbc                D_800C0DBC
                0x00000000800c0dc4                D_800C0DC4
                0x00000000800c0dd0                D_800C0DD0
                0x00000000800c0dd8                D_800C0DD8
                0x00000000800c0de0                D_800C0DE0
                0x00000000800c0de8                D_800C0DE8
                0x00000000800c0df4                D_800C0DF4
                0x00000000800c0dfc                D_800C0DFC
                0x00000000800c0e04                D_800C0E04
                0x00000000800c0e0c                D_800C0E0C
                0x00000000800c0e14                D_800C0E14
                0x00000000800c0e1c                D_800C0E1C
                0x00000000800c0e24                D_800C0E24
                0x00000000800c0e2c                D_800C0E2C
                0x00000000800c0e30                D_800C0E30
                0x00000000800c0e38                D_800C0E38
                0x00000000800c0e40                D_800C0E40
                0x00000000800c0e48                D_800C0E48
                0x00000000800c0e50                D_800C0E50
                0x00000000800c0e58                D_800C0E58
                0x00000000800c0e60                D_800C0E60
                0x00000000800c0e68                D_800C0E68
                0x00000000800c0e74                D_800C0E74
                0x00000000800c0e7c                D_800C0E7C
                0x00000000800c0e84                D_800C0E84
                0x00000000800c0e8c                D_800C0E8C
                0x00000000800c0e94                D_800C0E94
                0x00000000800c0e9c                D_800C0E9C
                0x00000000800c0ea0                D_800C0EA0
                0x00000000800c0ea8                D_800C0EA8
                0x00000000800c0eb0                D_800C0EB0
                0x00000000800c0eb8                D_800C0EB8
                0x00000000800c0ec0                D_800C0EC0
                0x00000000800c0ec8                D_800C0EC8
                0x00000000800c0ed0                D_800C0ED0
                0x00000000800c0ed8                D_800C0ED8
                0x00000000800c0ee0                D_800C0EE0
                0x00000000800c0ee8                D_800C0EE8
                0x00000000800c0ef0                D_800C0EF0
                0x00000000800c0ef8                D_800C0EF8
                0x00000000800c0f00                D_800C0F00
                0x00000000800c0f04                D_800C0F04
                0x00000000800c0f0c                D_800C0F0C
                0x00000000800c0f14                D_800C0F14
                0x00000000800c0f1c                D_800C0F1C
                0x00000000800c0f20                D_800C0F20
                0x00000000800c0f28                D_800C0F28
                0x00000000800c0f30                D_800C0F30
                0x00000000800c0f38                D_800C0F38
                0x00000000800c0f40                D_800C0F40
                0x00000000800c0f48                D_800C0F48
                0x00000000800c0f50                D_800C0F50
                0x00000000800c0f58                D_800C0F58
                0x00000000800c0f5c                D_800C0F5C
                0x00000000800c0f64                D_800C0F64
                0x00000000800c0f6c                D_800C0F6C
                0x00000000800c0f74                D_800C0F74
                0x00000000800c0f7c                D_800C0F7C
                0x00000000800c0f84                D_800C0F84
                0x00000000800c0f90                D_800C0F90
                0x00000000800c0f98                D_800C0F98
                0x00000000800c0fa0                D_800C0FA0
                0x00000000800c0fa8                D_800C0FA8
                0x00000000800c0fb0                D_800C0FB0
                0x00000000800c0fb8                D_800C0FB8
                0x00000000800c0fc0                D_800C0FC0
                0x00000000800c0fc4                D_800C0FC4
                0x00000000800c0fcc                D_800C0FCC
                0x00000000800c0fd4                D_800C0FD4
                0x00000000800c0fdc                D_800C0FDC
                0x00000000800c0fe4                D_800C0FE4
                0x00000000800c0fec                D_800C0FEC
                0x00000000800c0ff0                D_800C0FF0
                0x00000000800c0ff8                D_800C0FF8
                0x00000000800c1000                D_800C1000
                0x00000000800c1008                D_800C1008
                0x00000000800c1010                D_800C1010
                0x00000000800c1018                D_800C1018
                0x00000000800c1020                D_800C1020
                0x00000000800c1028                D_800C1028
                0x00000000800c1030                D_800C1030
                0x00000000800c1038                D_800C1038
                0x00000000800c1040                D_800C1040
                0x00000000800c1048                D_800C1048
                0x00000000800c1054                D_800C1054
                0x00000000800c105c                D_800C105C
                0x00000000800c1064                D_800C1064
                0x00000000800c106c                D_800C106C
                0x00000000800c1074                D_800C1074
                0x00000000800c107c                D_800C107C
                0x00000000800c1084                D_800C1084
                0x00000000800c108c                D_800C108C
                0x00000000800c1094                D_800C1094
                0x00000000800c109c                D_800C109C
                0x00000000800c10a4                D_800C10A4
                0x00000000800c10ac                D_800C10AC
                0x00000000800c10b4                D_800C10B4
                0x00000000800c10bc                D_800C10BC
                0x00000000800c10c4                D_800C10C4
                0x00000000800c10cc                D_800C10CC
                0x00000000800c10d8                D_800C10D8
                0x00000000800c10e4                D_800C10E4
                0x00000000800c10f0                D_800C10F0
                0x00000000800c10f4                D_800C10F4
                0x00000000800c1100                D_800C1100
                0x00000000800c1108                D_800C1108
                0x00000000800c1110                D_800C1110
                0x00000000800c1118                D_800C1118
                0x00000000800c1120                D_800C1120
                0x00000000800c1128                D_800C1128
                0x00000000800c1130                D_800C1130
                0x00000000800c1138                D_800C1138
                0x00000000800c1140                D_800C1140
                0x00000000800c1148                D_800C1148
                0x00000000800c1150                D_800C1150
                0x00000000800c1158                D_800C1158
                0x00000000800c1160                D_800C1160
                0x00000000800c116c                D_800C116C
                0x00000000800c1174                D_800C1174
                0x00000000800c1180                D_800C1180
                0x00000000800c1188                D_800C1188
                0x00000000800c1190                D_800C1190
                0x00000000800c1198                D_800C1198
                0x00000000800c11a0                D_800C11A0
                0x00000000800c11a8                D_800C11A8
                0x00000000800c11b0                D_800C11B0
                0x00000000800c11b4                D_800C11B4
                0x00000000800c11bc                D_800C11BC
                0x00000000800c11c4                D_800C11C4
                0x00000000800c11cc                D_800C11CC
                0x00000000800c11d0                D_800C11D0
                0x00000000800c11d4                D_800C11D4
                0x00000000800c11dc                D_800C11DC
                0x00000000800c11e4                D_800C11E4
                0x00000000800c11e8                D_800C11E8
                0x00000000800c11f0                D_800C11F0
                0x00000000800c11f8                D_800C11F8
                0x00000000800c1200                D_800C1200
                0x00000000800c1208                D_800C1208
                0x00000000800c1210                D_800C1210
                0x00000000800c1218                D_800C1218
                0x00000000800c1220                D_800C1220
                0x00000000800c1228                D_800C1228
                0x00000000800c1230                D_800C1230
                0x00000000800c1238                D_800C1238
                0x00000000800c1240                D_800C1240
                0x00000000800c1248                D_800C1248
                0x00000000800c1250                D_800C1250
                0x00000000800c1258                D_800C1258
                0x00000000800c1260                D_800C1260
                0x00000000800c1268                D_800C1268
                0x00000000800c1270                D_800C1270
                0x00000000800c1278                D_800C1278
                0x00000000800c1280                D_800C1280
                0x00000000800c1288                D_800C1288
                0x00000000800c1290                D_800C1290
                0x00000000800c129c                D_800C129C
                0x00000000800c12a4                D_800C12A4
                0x00000000800c12ac                D_800C12AC
                0x00000000800c12b8                D_800C12B8
                0x00000000800c12c0                D_800C12C0
                0x00000000800c12c8                D_800C12C8
                0x00000000800c12d4                D_800C12D4
                0x00000000800c12dc                D_800C12DC
                0x00000000800c12e4                D_800C12E4
                0x00000000800c12ec                D_800C12EC
                0x00000000800c12f4                D_800C12F4
                0x00000000800c12fc                D_800C12FC
                0x00000000800c1308                D_800C1308
                0x00000000800c1310                D_800C1310
                0x00000000800c1318                D_800C1318
                0x00000000800c1324                D_800C1324
                0x00000000800c132c                D_800C132C
                0x00000000800c1334                D_800C1334
                0x00000000800c1340                D_800C1340
                0x00000000800c1348                D_800C1348
                0x00000000800c1350                D_800C1350
                0x00000000800c1358                D_800C1358
                0x00000000800c1360                D_800C1360
                0x00000000800c136c                D_800C136C
                0x00000000800c1378                D_800C1378
                0x00000000800c1380                D_800C1380
                0x00000000800c1388                D_800C1388
                0x00000000800c1390                D_800C1390
                0x00000000800c139c                D_800C139C
                0x00000000800c13a4                D_800C13A4
                0x00000000800c13ac                D_800C13AC
                0x00000000800c13b8                D_800C13B8
                0x00000000800c13c0                D_800C13C0
                0x00000000800c13c8                D_800C13C8
                0x00000000800c13d4                D_800C13D4
                0x00000000800c13e0                D_800C13E0
                0x00000000800c13ec                D_800C13EC
                0x00000000800c13f4                D_800C13F4
                0x00000000800c1400                D_800C1400
                0x00000000800c1408                D_800C1408
                0x00000000800c1410                D_800C1410
                0x00000000800c1418                D_800C1418
                0x00000000800c1420                D_800C1420
                0x00000000800c1428                D_800C1428
                0x00000000800c1430                D_800C1430
                0x00000000800c1434                D_800C1434
                0x00000000800c143c                D_800C143C
                0x00000000800c1444                D_800C1444
                0x00000000800c144c                D_800C144C
                0x00000000800c1458                D_800C1458
                0x00000000800c1464                D_800C1464
                0x00000000800c146c                D_800C146C
                0x00000000800c1474                D_800C1474
                0x00000000800c147c                D_800C147C
                0x00000000800c1484                D_800C1484
                0x00000000800c1490                D_800C1490
                0x00000000800c149c                D_800C149C
                0x00000000800c14a4                D_800C14A4
                0x00000000800c14ac                D_800C14AC
                0x00000000800c14b8                D_800C14B8
                0x00000000800c14c4                D_800C14C4
                0x00000000800c14cc                D_800C14CC
                0x00000000800c14d0                D_800C14D0
                0x00000000800c14d8                D_800C14D8
                0x00000000800c14e0                D_800C14E0
                0x00000000800c14e8                D_800C14E8
                0x00000000800c14f0                D_800C14F0
                0x00000000800c14f8                D_800C14F8
                0x00000000800c1500                D_800C1500
                0x00000000800c1508                D_800C1508
                0x00000000800c1510                D_800C1510
                0x00000000800c1514                D_800C1514
                0x00000000800c1518                D_800C1518
                0x00000000800c151c                D_800C151C
                0x00000000800c1524                D_800C1524
                0x00000000800c152c                D_800C152C
                0x00000000800c1534                D_800C1534
                0x00000000800c1538                D_800C1538
                0x00000000800c1540                D_800C1540
                0x00000000800c1548                D_800C1548
                0x00000000800c1550                D_800C1550
                0x00000000800c1558                D_800C1558
                0x00000000800c1560                D_800C1560
                0x00000000800c1568                D_800C1568
                0x00000000800c1570                D_800C1570
                0x00000000800c1578                D_800C1578
                0x00000000800c1580                D_800C1580
                0x00000000800c1588                D_800C1588
                0x00000000800c1590                D_800C1590
                0x00000000800c159c                D_800C159C
                0x00000000800c15a4                D_800C15A4
                0x00000000800c15b0                D_800C15B0
                0x00000000800c15b8                D_800C15B8
                0x00000000800c15bc                D_800C15BC
                0x00000000800c15c4                D_800C15C4
                0x00000000800c15d0                D_800C15D0
                0x00000000800c15dc                D_800C15DC
                0x00000000800c15e0                D_800C15E0
                0x00000000800c15e8                D_800C15E8
                0x00000000800c15f0                D_800C15F0
                0x00000000800c15f8                D_800C15F8
                0x00000000800c1600                D_800C1600
                0x00000000800c1604                D_800C1604
                0x00000000800c160c                D_800C160C
                0x00000000800c1614                D_800C1614
                0x00000000800c161c                D_800C161C
                0x00000000800c1624                D_800C1624
                0x00000000800c162c                D_800C162C
                0x00000000800c1634                D_800C1634
                0x00000000800c163c                D_800C163C
                0x00000000800c1644                D_800C1644
                0x00000000800c164c                D_800C164C
                0x00000000800c1654                D_800C1654
                0x00000000800c165c                D_800C165C
                0x00000000800c1664                D_800C1664
                0x00000000800c166c                D_800C166C
                0x00000000800c1674                D_800C1674
                0x00000000800c167c                D_800C167C
                0x00000000800c1688                D_800C1688
                0x00000000800c1690                D_800C1690
                0x00000000800c1b2c                D_800C1B2C
                0x00000000800c1b34                D_800C1B34
                0x00000000800c1b3c                D_800C1B3C
                0x00000000800c1b44                D_800C1B44
                0x00000000800c1b50                D_800C1B50
                0x00000000800c1b54                D_800C1B54
                0x00000000800c1b5c                D_800C1B5C
                0x00000000800c1b64                D_800C1B64
                0x00000000800c1b6c                D_800C1B6C
                0x00000000800c1b74                D_800C1B74
                0x00000000800c1b7c                D_800C1B7C
                0x00000000800c1b84                D_800C1B84
                0x00000000800c1b8c                D_800C1B8C
                0x00000000800c1b94                D_800C1B94
                0x00000000800c1b9c                D_800C1B9C
                0x00000000800c1ba4                D_800C1BA4
                0x00000000800c1bac                D_800C1BAC
                0x00000000800c1bb4                D_800C1BB4
                0x00000000800c1bc0                D_800C1BC0
                0x00000000800c1bc8                D_800C1BC8
                0x00000000800c1bd0                D_800C1BD0
                0x00000000800c1bdc                D_800C1BDC
                0x00000000800c1bec                D_800C1BEC
                0x00000000800c1bf4                D_800C1BF4
                0x00000000800c1bfc                D_800C1BFC
                0x00000000800c1c04                D_800C1C04
                0x00000000800c1c10                D_800C1C10
                0x00000000800c1c18                D_800C1C18
                0x00000000800c1c20                D_800C1C20
                0x00000000800c1c28                D_800C1C28
                0x00000000800c1c30                D_800C1C30
                0x00000000800c1c38                D_800C1C38
                0x00000000800c1c3c                D_800C1C3C
                0x00000000800c1c44                D_800C1C44
                0x00000000800c1c4c                D_800C1C4C
                0x00000000800c1c54                D_800C1C54
                0x00000000800c1c60                D_800C1C60
                0x00000000800c1c68                D_800C1C68
                0x00000000800c1c70                D_800C1C70
                0x00000000800c1c7c                D_800C1C7C
                0x00000000800c1c84                D_800C1C84
                0x00000000800c1c8c                D_800C1C8C
                0x00000000800c1c94                D_800C1C94
                0x00000000800c1c9c                D_800C1C9C
                0x00000000800c1ca4                D_800C1CA4
                0x00000000800c1cac                D_800C1CAC
                0x00000000800c1cb8                D_800C1CB8
                0x00000000800c1cc0                D_800C1CC0
                0x00000000800c1cc8                D_800C1CC8
                0x00000000800c1cd0                D_800C1CD0
                0x00000000800c1cd8                D_800C1CD8
                0x00000000800c1ce0                D_800C1CE0
                0x00000000800c1ce8                D_800C1CE8
                0x00000000800c1cf0                D_800C1CF0
                0x00000000800c1cf8                D_800C1CF8
                0x00000000800c1d00                D_800C1D00
                0x00000000800c1d08                D_800C1D08
                0x00000000800c1d10                D_800C1D10
                0x00000000800c1d14                D_800C1D14
                0x00000000800c1d1c                D_800C1D1C
                0x00000000800c1d24                D_800C1D24
                0x00000000800c1d2c                D_800C1D2C
                0x00000000800c1d30                D_800C1D30
                0x00000000800c1d38                D_800C1D38
                0x00000000800c1d40                D_800C1D40
                0x00000000800c1d48                D_800C1D48
                0x00000000800c1d50                D_800C1D50
                0x00000000800c1d58                D_800C1D58
                0x00000000800c1d5c                D_800C1D5C
                0x00000000800c1d64                D_800C1D64
                0x00000000800c1d6c                D_800C1D6C
                0x00000000800c1d74                D_800C1D74
                0x00000000800c1d7c                D_800C1D7C
                0x00000000800c1d84                D_800C1D84
                0x00000000800c1d90                D_800C1D90
                0x00000000800c1d98                D_800C1D98
                0x00000000800c1da0                D_800C1DA0
                0x00000000800c1da8                D_800C1DA8
                0x00000000800c1db0                D_800C1DB0
                0x00000000800c1db8                D_800C1DB8
                0x00000000800c1dc0                D_800C1DC0
                0x00000000800c1dc4                D_800C1DC4
                0x00000000800c1dcc                D_800C1DCC
                0x00000000800c1dd4                D_800C1DD4
                0x00000000800c1ddc                D_800C1DDC
                0x00000000800c1de4                D_800C1DE4
                0x00000000800c1dec                D_800C1DEC
                0x00000000800c1df4                D_800C1DF4
                0x00000000800c1dfc                D_800C1DFC
                0x00000000800c1e04                D_800C1E04
                0x00000000800c1e0c                D_800C1E0C
                0x00000000800c1e14                D_800C1E14
                0x00000000800c1e1c                D_800C1E1C
                0x00000000800c1e20                D_800C1E20
                0x00000000800c1e28                D_800C1E28
                0x00000000800c1e2c                D_800C1E2C
                0x00000000800c1e34                D_800C1E34
                0x00000000800c1e3c                D_800C1E3C
                0x00000000800c1e44                D_800C1E44
                0x00000000800c1e4c                D_800C1E4C
                0x00000000800c1e58                D_800C1E58
                0x00000000800c1e60                D_800C1E60
                0x00000000800c1e68                D_800C1E68
                0x00000000800c1e70                D_800C1E70
                0x00000000800c1e7c                D_800C1E7C
                0x00000000800c1e84                D_800C1E84
                0x00000000800c1e8c                D_800C1E8C
                0x00000000800c1e94                D_800C1E94
                0x00000000800c1e9c                D_800C1E9C
                0x00000000800c1ea4                D_800C1EA4
                0x00000000800c1eac                D_800C1EAC
                0x00000000800c1eb0                D_800C1EB0
                0x00000000800c1eb4                D_800C1EB4
                0x00000000800c1eb8                D_800C1EB8
                0x00000000800c1ebc                D_800C1EBC
                0x00000000800c1ec0                D_800C1EC0
                0x00000000800c1ec8                D_800C1EC8
                0x00000000800c1ed0                D_800C1ED0
                0x00000000800c1edc                D_800C1EDC
                0x00000000800c1ee4                D_800C1EE4
                0x00000000800c1eec                D_800C1EEC
                0x00000000800c1ef0                D_800C1EF0
                0x00000000800c1ef4                D_800C1EF4
                0x00000000800c1efc                D_800C1EFC
                0x00000000800c1f04                D_800C1F04
                0x00000000800c1f0c                D_800C1F0C
                0x00000000800c1f14                D_800C1F14
                0x00000000800c1f1c                D_800C1F1C
                0x00000000800c1f24                D_800C1F24
                0x00000000800c1f2c                D_800C1F2C
                0x00000000800c1f38                D_800C1F38
                0x00000000800c1f40                D_800C1F40
                0x00000000800c1f48                D_800C1F48
                0x00000000800c1f50                D_800C1F50
                0x00000000800c1f58                D_800C1F58
                0x00000000800c1f60                D_800C1F60
                0x00000000800c1f68                D_800C1F68
                0x00000000800c1f70                D_800C1F70
                0x00000000800c1f74                D_800C1F74
                0x00000000800c1f7c                D_800C1F7C
                0x00000000800c1f88                D_800C1F88
                0x00000000800c1f94                D_800C1F94
                0x00000000800c1fa0                D_800C1FA0
                0x00000000800c1fa8                D_800C1FA8
                0x00000000800c1fb4                D_800C1FB4
                0x00000000800c1fbc                D_800C1FBC
                0x00000000800c1fc4                D_800C1FC4
                0x00000000800c1fd0                D_800C1FD0
                0x00000000800c1fd8                D_800C1FD8
                0x00000000800c1fe0                D_800C1FE0
                0x00000000800c1fe8                D_800C1FE8
                0x00000000800c1ff0                D_800C1FF0
                0x00000000800c1ff8                D_800C1FF8
                0x00000000800c2000                D_800C2000
                0x00000000800c2008                D_800C2008
                0x00000000800c2010                D_800C2010
                0x00000000800c2018                D_800C2018
                0x00000000800c2020                D_800C2020
                0x00000000800c202c                D_800C202C
                0x00000000800c2038                D_800C2038
                0x00000000800c2044                D_800C2044
                0x00000000800c204c                D_800C204C
                0x00000000800c2058                D_800C2058
                0x00000000800c2060                D_800C2060
                0x00000000800c2068                D_800C2068
                0x00000000800c206c                D_800C206C
                0x00000000800c2074                D_800C2074
                0x00000000800c2080                D_800C2080
                0x00000000800c2088                D_800C2088
                0x00000000800c2094                D_800C2094
                0x00000000800c20a0                D_800C20A0
                0x00000000800c20ac                D_800C20AC
                0x00000000800c20b4                D_800C20B4
                0x00000000800c20bc                D_800C20BC
                0x00000000800c20c8                D_800C20C8
                0x00000000800c20d4                D_800C20D4
                0x00000000800c20dc                D_800C20DC
                0x00000000800c20e4                D_800C20E4
                0x00000000800c20ec                D_800C20EC
                0x00000000800c20f8                D_800C20F8
                0x00000000800c2104                D_800C2104
                0x00000000800c210c                D_800C210C
                0x00000000800c2114                D_800C2114
                0x00000000800c2120                D_800C2120
                0x00000000800c2128                D_800C2128
                0x00000000800c2130                D_800C2130
                0x00000000800c213c                D_800C213C
                0x00000000800c2144                D_800C2144
                0x00000000800c214c                D_800C214C
                0x00000000800c2158                D_800C2158
                0x00000000800c2164                D_800C2164
                0x00000000800c216c                D_800C216C
                0x00000000800c2178                D_800C2178
                0x00000000800c2180                D_800C2180
                0x00000000800c2188                D_800C2188
                0x00000000800c2190                D_800C2190
                0x00000000800c2198                D_800C2198
                0x00000000800c21a0                D_800C21A0
                0x00000000800c21a8                D_800C21A8
                0x00000000800c21b0                D_800C21B0
                0x00000000800c21b8                D_800C21B8
                0x00000000800c21bc                D_800C21BC
                0x00000000800c21c4                D_800C21C4
                0x00000000800c21cc                D_800C21CC
                0x00000000800c21d4                D_800C21D4
                0x00000000800c21e0                D_800C21E0
                0x00000000800c21ec                D_800C21EC
                0x00000000800c21f4                D_800C21F4
                0x00000000800c21fc                D_800C21FC
                0x00000000800c2204                D_800C2204
                0x00000000800c220c                D_800C220C
                0x00000000800c2218                D_800C2218
                0x00000000800c2224                D_800C2224
                0x00000000800c222c                D_800C222C
                0x00000000800c2234                D_800C2234
                0x00000000800c2240                D_800C2240
                0x00000000800c2248                D_800C2248
                0x00000000800c2250                D_800C2250
                0x00000000800c2258                D_800C2258
                0x00000000800c2260                D_800C2260
                0x00000000800c2268                D_800C2268
                0x00000000800c2270                D_800C2270
                0x00000000800c2278                D_800C2278
                0x00000000800c2280                D_800C2280
                0x00000000800c26dc                D_800C26DC
                0x00000000800c2968                D_800C2968
                0x00000000800c2b74                D_800C2B74
                0x00000000800c2bb4                D_800C2BB4
                0x00000000800c2e00                D_800C2E00
                0x00000000800c382c                D_800C382C
                0x00000000800c3830                D_800C3830
                0x00000000800c3834                D_800C3834
                0x00000000800c3838                D_800C3838
                0x00000000800c383c                D_800C383C
                0x00000000800c3858                D_800C3858
                0x00000000800c3908                D_800C3908
                0x00000000800c4908                D_800C4908
                0x00000000800c495c                D_800C495C
                0x00000000800c4e5c                D_800C4E5C
                0x00000000800c4ea0                D_800C4EA0
                0x00000000800c4eac                D_800C4EAC
                0x00000000800c4eb0                D_800C4EB0
                0x00000000800c4eb4                D_800C4EB4
                0x00000000800c4eb8                D_800C4EB8
                0x00000000800c4ebc                D_800C4EBC
                0x00000000800c4ec0                D_800C4EC0
                0x00000000800c4ec4                D_800C4EC4
                0x00000000800c4ec8                D_800C4EC8
                0x00000000800c4ed0                D_800C4ED0
                0x00000000800c4ed4                D_800C4ED4
                0x00000000800c4ed8                D_800C4ED8
                0x00000000800c4edc                D_800C4EDC
                0x00000000800c4ee0                D_800C4EE0
                0x00000000800c4f00                D_800C4F00
                0x00000000800c4f20                D_800C4F20
                0x00000000800c4f28                D_800C4F28
                0x00000000800c4fa8                D_800C4FA8
                0x00000000800c4fc0                D_800C4FC0
                0x00000000800c4fe8                D_800C4FE8
                0x00000000800c5000                D_800C5000
                0x00000000800c5004                D_800C5004
                0x00000000800c5008                D_800C5008
                0x00000000800c500c                D_800C500C
                0x00000000800c5010                D_800C5010
                0x00000000800c5018                D_800C5018
                0x00000000800c5024                D_800C5024
                0x00000000800c5028                D_800C5028
                0x00000000800c502c                D_800C502C
                0x00000000800c5038                D_800C5038
                0x00000000800c5044                D_800C5044
                0x00000000800c5050                D_800C5050
                0x00000000800c505c                D_800C505C
                0x00000000800c5068                D_800C5068
                0x00000000800c5078                D_800C5078
                0x00000000800c5084                D_800C5084
                0x00000000800c50a8                D_800C50A8
                0x00000000800c50cc                D_800C50CC
                0x00000000800c50f0                D_800C50F0
                0x00000000800c5114                D_800C5114
                0x00000000800c5138                D_800C5138
                0x00000000800c513c                D_800C513C
                0x00000000800c5140                D_800C5140
                0x00000000800c5144                D_800C5144
                0x00000000800c515c                D_800C515C
                0x00000000800c5180                D_800C5180
                0x00000000800c51a4                D_800C51A4
                0x00000000800c51c8                D_800C51C8
                0x00000000800c51ec                D_800C51EC
                0x00000000800c5210                D_800C5210
                0x00000000800c5220                D_800C5220
                0x00000000800c5230                D_800C5230
                0x00000000800c5240                D_800C5240
                0x00000000800c5250                D_800C5250
                0x00000000800c5260                D_800C5260
                0x00000000800c526c                D_800C526C
                0x00000000800c5294                D_800C5294
                0x00000000800c52a4                D_800C52A4
                0x00000000800c52b0                D_800C52B0
                0x00000000800c52bc                D_800C52BC
                0x00000000800c52c8                D_800C52C8
                0x00000000800c52d4                D_800C52D4
                0x00000000800c52e4                D_800C52E4
                0x00000000800c52e8                D_800C52E8
                0x00000000800c52ec                D_800C52EC
                0x00000000800c52f4                D_800C52F4
                0x00000000800c52f8                D_800C52F8
                0x00000000800c5304                D_800C5304
                0x00000000800c5328                D_800C5328
                0x00000000800c534c                D_800C534C
                0x00000000800c5370                D_800C5370
                0x00000000800c5394                D_800C5394
                0x00000000800c53c0                D_800C53C0
                0x00000000800c54e4                D_800C54E4
                0x00000000800c5608                D_800C5608
                0x00000000800c592c                D_800C592C
                0x00000000800c5c50                D_800C5C50
                0x00000000800c5c70                D_800C5C70
                0x00000000800c5c90                D_800C5C90
                0x00000000800c5cd0                D_800C5CD0
                0x00000000800c5d14                D_800C5D14
                0x00000000800c5d1c                D_800C5D1C
                0x00000000800c5d20                D_800C5D20
                0x00000000800c5da0                D_800C5DA0
                0x00000000800c5e20                D_800C5E20
                0x00000000800c5ea0                D_800C5EA0
                0x00000000800c5f20                D_800C5F20
                0x00000000800c6020                D_800C6020
                0x00000000800c60a0                D_800C60A0
                0x00000000800c61a0                D_800C61A0
                0x00000000800c62a0                D_800C62A0
                0x00000000800c63a0                D_800C63A0
                0x00000000800c64a0                D_800C64A0
                0x00000000800c65a0                D_800C65A0
                0x00000000800c66a0                D_800C66A0
                0x00000000800c67a0                D_800C67A0
                0x00000000800c68a0                D_800C68A0
                0x00000000800c69a0                D_800C69A0
                0x00000000800c6aa0                D_800C6AA0
                0x00000000800c6ba0                D_800C6BA0
                0x00000000800c6ca0                D_800C6CA0
                0x00000000800c6da0                D_800C6DA0
                0x00000000800c6ea0                D_800C6EA0
                0x00000000800c6fa0                D_800C6FA0
                0x00000000800c70a0                D_800C70A0
                0x00000000800c71a0                D_800C71A0
                0x00000000800c75a0                D_800C75A0
                0x00000000800c76a0                D_800C76A0
                0x00000000800c78a0                D_800C78A0
                0x00000000800c7950                D_800C7950
                0x00000000800c7ab0                D_800C7AB0
                0x00000000800c7b60                D_800C7B60
                0x00000000800c7ca4                D_800C7CA4
                0x00000000800c7cac                D_800C7CAC
                0x00000000800c7cb4                D_800C7CB4
                0x00000000800c7cbc                D_800C7CBC
                0x00000000800c7cd0                D_800C7CD0
                0x00000000800c7d10                D_800C7D10
                0x00000000800c7d1c                D_800C7D1C
                0x00000000800c7d24                D_800C7D24
                0x00000000800c7d54                D_800C7D54
                0x00000000800c7d74                D_800C7D74
                0x00000000800c7d94                D_800C7D94
                0x00000000800c7db4                D_800C7DB4
                0x00000000800c7dd4                D_800C7DD4
                0x00000000800c7df4                D_800C7DF4
                0x00000000800c7e14                D_800C7E14
                0x00000000800c7e54                D_800C7E54
                0x00000000800c7e5c                D_800C7E5C
                0x00000000800c7e88                D_800C7E88
                0x00000000800c7e90                D_800C7E90
                0x00000000800c7eb8                D_800C7EB8
                0x00000000800c7ec0                D_800C7EC0
                0x00000000800c7ee4                D_800C7EE4
                0x00000000800c7eec                D_800C7EEC
                0x00000000800c7f04                D_800C7F04
                0x00000000800c7f20                D_800C7F20
                0x00000000800c7f60                D_800C7F60
                0x00000000800c7fa0                D_800C7FA0
                0x00000000800c7fe0                D_800C7FE0
                0x00000000800c81e0                D_800C81E0
                0x00000000800c81e4                D_800C81E4
                0x00000000800c823c                D_800C823C
                0x00000000800c8268                D_800C8268
                0x00000000800c8270                D_800C8270
                0x00000000800c8278                D_800C8278
                0x00000000800c8378                D_800C8378
                0x00000000800c83f8                D_800C83F8
                0x00000000800c8478                D_800C8478
                0x00000000800c84ec                D_800C84EC
                0x00000000800c84f0                D_800C84F0
                0x00000000800c84f4                D_800C84F4
                0x00000000800c84f8                D_800C84F8
                0x00000000800c84fc                D_800C84FC
                0x00000000800c8500                D_800C8500
                0x00000000800c8504                D_800C8504
                0x00000000800c8508                D_800C8508
                0x00000000800c850c                D_800C850C
                0x00000000800c8510                D_800C8510
                0x00000000800c8518                D_800C8518
                0x00000000800c851c                D_800C851C
                0x00000000800c8520                D_800C8520
                0x00000000800c8524                D_800C8524
                0x00000000800c8528                D_800C8528
                0x00000000800c852c                D_800C852C
                0x00000000800c8530                D_800C8530
                0x00000000800c8534                D_800C8534
                0x00000000800c8538                D_800C8538
                0x00000000800c853c                D_800C853C
                0x00000000800c8544                D_800C8544
                0x00000000800c854c                D_800C854C
                0x00000000800c8550                D_800C8550
                0x00000000800c8554                D_800C8554
                0x00000000800c8558                D_800C8558
                0x00000000800c855c                D_800C855C
                0x00000000800c8560                D_800C8560
                0x00000000800c8564                D_800C8564
                0x00000000800c8568                D_800C8568
                0x00000000800c856c                D_800C856C
                0x00000000800c8570                D_800C8570
                0x00000000800c8578                D_800C8578
                0x00000000800c8580                D_800C8580
                0x00000000800c8588                D_800C8588
                0x00000000800c858c                D_800C858C
                0x00000000800c8590                D_800C8590
                0x00000000800c8594                D_800C8594
                0x00000000800c8598                D_800C8598
                0x00000000800c859c                D_800C859C
                0x00000000800c85a0                D_800C85A0
                0x00000000800c85a4                D_800C85A4
                0x00000000800c85a8                D_800C85A8
                0x00000000800c85ac                D_800C85AC
                0x00000000800c85b4                D_800C85B4
                0x00000000800c85bc                D_800C85BC
                0x00000000800c85c0                D_800C85C0
                0x00000000800c85c4                D_800C85C4
                0x00000000800c85c8                D_800C85C8
                0x00000000800c85cc                D_800C85CC
                0x00000000800c85d0                D_800C85D0
                0x00000000800c85d4                D_800C85D4
                0x00000000800c85d8                D_800C85D8
                0x00000000800c85dc                D_800C85DC
                0x00000000800c85e0                D_800C85E0
                0x00000000800c85e8                D_800C85E8
                0x00000000800c8608                D_800C8608
                0x00000000800c8624                D_800C8624
                0x00000000800c8638                D_800C8638
                0x00000000800c8650                D_800C8650
                0x00000000800c8668                D_800C8668
                0x00000000800c8684                D_800C8684
                0x00000000800c86a0                D_800C86A0
                0x00000000800c86bc                D_800C86BC
                0x00000000800c86d4                D_800C86D4
                0x00000000800c86f4                D_800C86F4
                0x00000000800c8714                D_800C8714
                0x00000000800c872c                D_800C872C
                0x00000000800c874c                D_800C874C
                0x00000000800c8768                D_800C8768
                0x00000000800c877c                D_800C877C
                0x00000000800c8794                D_800C8794
                0x00000000800c87a8                D_800C87A8
                0x00000000800c87c8                D_800C87C8
                0x00000000800c87dc                D_800C87DC
                0x00000000800c87fc                D_800C87FC
                0x00000000800c8810                D_800C8810
                0x00000000800c8830                D_800C8830
                0x00000000800c8844                D_800C8844
                0x00000000800c8860                D_800C8860
                0x00000000800c887c                D_800C887C
                0x00000000800c8898                D_800C8898
                0x00000000800c88b4                D_800C88B4
                0x00000000800c88cc                D_800C88CC
                0x00000000800c88e8                D_800C88E8
                0x00000000800c8908                D_800C8908
                0x00000000800c8924                D_800C8924
                0x00000000800c893c                D_800C893C
                0x00000000800c895c                D_800C895C
                0x00000000800c896c                D_800C896C
                0x00000000800c898c                D_800C898C
                0x00000000800c89a4                D_800C89A4
                0x00000000800c89c0                D_800C89C0
                0x00000000800c89d8                D_800C89D8
                0x00000000800c89f4                D_800C89F4
                0x00000000800c8a0c                D_800C8A0C
                0x00000000800c8a2c                D_800C8A2C
                0x00000000800c8a48                D_800C8A48
                0x00000000800c8a64                D_800C8A64
                0x00000000800c8a74                D_800C8A74
                0x00000000800c8a94                D_800C8A94
                0x00000000800c8ab0                D_800C8AB0
                0x00000000800c8ac8                D_800C8AC8
                0x00000000800c8ae4                D_800C8AE4
                0x00000000800c8afc                D_800C8AFC
                0x00000000800c8b18                D_800C8B18
                0x00000000800c8b34                D_800C8B34
                0x00000000800c8b50                D_800C8B50
                0x00000000800c8b60                D_800C8B60
                0x00000000800c8b74                D_800C8B74
                0x00000000800c8b88                D_800C8B88
                0x00000000800c8ba8                D_800C8BA8
                0x00000000800c8bc4                D_800C8BC4
                0x00000000800c8bd4                D_800C8BD4
                0x00000000800c8be4                D_800C8BE4
                0x00000000800c8bf8                D_800C8BF8
                0x00000000800c8c04                D_800C8C04
                0x00000000800c8c10                D_800C8C10
                0x00000000800c8c38                D_800C8C38
                0x00000000800c8c64                D_800C8C64
                0x00000000800c8c94                D_800C8C94
                0x00000000800c8cc0                D_800C8CC0
                0x00000000800c8ce8                D_800C8CE8
                0x00000000800c8cfc                D_800C8CFC
                0x00000000800c8d10                D_800C8D10
                0x00000000800c8d28                D_800C8D28
                0x00000000800c8d40                D_800C8D40
                0x00000000800c8d58                D_800C8D58
                0x00000000800c8d6c                D_800C8D6C
                0x00000000800c8d80                D_800C8D80
                0x00000000800c8da8                D_800C8DA8
                0x00000000800c8dd4                D_800C8DD4
                0x00000000800c8e04                D_800C8E04
                0x00000000800c8e30                D_800C8E30
                0x00000000800c8e58                D_800C8E58
                0x00000000800c8e6c                D_800C8E6C
                0x00000000800c8e80                D_800C8E80
                0x00000000800c8e98                D_800C8E98
                0x00000000800c8eb0                D_800C8EB0
                0x00000000800c8ec8                D_800C8EC8
                0x00000000800c8edc                D_800C8EDC
                0x00000000800c8ef0                D_800C8EF0
                0x00000000800c8f68                D_800C8F68
                0x00000000800c8f74                D_800C8F74
                0x00000000800c8f88                D_800C8F88
                0x00000000800c8fa0                D_800C8FA0
                0x00000000800c8fc0                D_800C8FC0
                0x00000000800c9080                D_800C9080
                0x00000000800c9280                D_800C9280
                0x00000000800c94cc                D_800C94CC
                0x00000000800c94d0                D_800C94D0
                0x00000000800c94e0                D_800C94E0
                0x00000000800c9500                D_800C9500
                0x00000000800c9520                D_800C9520
                0x00000000800c952c                D_800C952C
                0x00000000800c9540                D_800C9540
                0x00000000800c9554                D_800C9554
                0x00000000800c9564                D_800C9564
                0x00000000800c957c                D_800C957C
                0x00000000800c9594                D_800C9594
                0x00000000800c95ac                D_800C95AC
                0x00000000800c95c4                D_800C95C4
                0x00000000800c95dc                D_800C95DC
                0x00000000800c95f4                D_800C95F4
                0x00000000800c9610                D_800C9610
                0x00000000800c962c                D_800C962C
                0x00000000800c9648                D_800C9648
                0x00000000800c9664                D_800C9664
                0x00000000800c966c                D_800C966C
                0x00000000800c9670                D_800C9670
                0x00000000800c9674                D_800C9674
                0x00000000800c9678                D_800C9678
                0x00000000800c967c                D_800C967C
                0x00000000800c9680                D_800C9680
                0x00000000800c9694                D_800C9694
                0x00000000800c96a0                D_800C96A0
                0x00000000800c96b4                D_800C96B4
                0x00000000800c96c4                D_800C96C4
                0x00000000800c9700                D_800C9700
                0x00000000800c9dd8                D_800C9DD8
                0x00000000800c9fcc                D_800C9FCC
                0x00000000800ca1c0                D_800CA1C0
                0x00000000800ca230                D_800CA230
                0x00000000800ca234                D_800CA234
                0x00000000800ca238                D_800CA238
                0x00000000800ca23c                D_800CA23C
                0x00000000800ca240                D_800CA240
                0x00000000800ca244                D_800CA244
                0x00000000800ca248                D_800CA248
                0x00000000800ca24c                D_800CA24C
                0x00000000800ca250                D_800CA250
                0x00000000800ca254                D_800CA254
                0x00000000800ca26c                D_800CA26C
                0x00000000800ca280                D_800CA280
                0x00000000800ca28c                D_800CA28C
                0x00000000800ca2a0                D_800CA2A0
                0x00000000800ca2b0                D_800CA2B0
                0x00000000800ca2b8                D_800CA2B8
                0x00000000800ca5c0                D_800CA5C0
                0x00000000800ca8bc                D_800CA8BC
                0x00000000800cabb4                D_800CABB4
                0x00000000800caea8                D_800CAEA8
                0x00000000800cb2ac                D_800CB2AC
                0x00000000800cb6c8                D_800CB6C8
                0x00000000800cba60                D_800CBA60
                0x00000000800cbdfc                D_800CBDFC
                0x00000000800cbe0c                D_800CBE0C
                0x00000000800cbe20                D_800CBE20
                0x00000000800cbee0                D_800CBEE0
                0x00000000800cbf0c                D_800CBF0C
                0x00000000800cbf40                D_800CBF40
                0x00000000800cbf44                D_800CBF44
                0x00000000800cbf50                D_800CBF50
                0x00000000800cbf54                D_800CBF54
                0x00000000800cbf58                D_800CBF58
                0x00000000800cbf5c                D_800CBF5C
                0x00000000800cbffc                D_800CBFFC
                0x00000000800cc228                D_800CC228
                0x00000000800cc428                D_800CC428
                0x00000000800cc42c                D_800CC42C
                0x00000000800cc58c                D_800CC58C
                0x00000000800cc6ec                D_800CC6EC
                0x00000000800ccc6c                D_800CCC6C
                0x00000000800ccc78                D_800CCC78
                0x00000000800ccfdc                D_800CCFDC
                0x00000000800cd034                D_800CD034
                0x00000000800cd08c                D_800CD08C
                0x00000000800cd60c                D_800CD60C
                0x00000000800cdb8c                D_800CDB8C
                0x00000000800ce10c                D_800CE10C
                0x00000000800ce68c                D_800CE68C
                0x00000000800cec0c                D_800CEC0C
                0x00000000800cec10                D_800CEC10
                0x00000000800ceed0                D_800CEED0
                0x00000000800cf2f4                D_800CF2F4
                0x00000000800cf5b8                D_800CF5B8
                0x00000000800cf87c                D_800CF87C
                0x00000000800cfb40                D_800CFB40
                0x00000000800cfe04                D_800CFE04
                0x00000000800d0e84                D_800D0E84
                0x00000000800d0e88                D_800D0E88
                0x00000000800d0e8c                D_800D0E8C
                0x00000000800d0e90                D_800D0E90
                0x00000000800d0e94                D_800D0E94
                0x00000000800d0e98                D_800D0E98
                0x00000000800d1690                D_800D1690
                0x00000000800d16c4                D_800D16C4
                0x00000000800d1788                D_800D1788
                0x00000000800d1790                D_800D1790
                0x00000000800d1798                D_800D1798
                0x00000000800d17a0                D_800D17A0
                0x00000000800d17a8                D_800D17A8
                0x00000000800d17b8                D_800D17B8
                0x00000000800d17fc                D_800D17FC
                0x00000000800d1810                D_800D1810
                0x00000000800d1898                D_800D1898
                0x00000000800d18a4                D_800D18A4
                0x00000000800d18c4                D_800D18C4
                0x00000000800d18e4                D_800D18E4
                0x00000000800d1938                D_800D1938
                0x00000000800d1954                D_800D1954
                0x00000000800d1958                D_800D1958
                0x00000000800d1968                D_800D1968
                0x00000000800d19a8                D_800D19A8
                0x00000000800d19b8                D_800D19B8
                0x00000000800d19f4                D_800D19F4
                0x00000000800d1a04                D_800D1A04
                0x00000000800d1c04                D_800D1C04
                0x00000000800d2204                D_800D2204
                0x00000000800d2228                D_800D2228
                0x00000000800d222c                D_800D222C
                0x00000000800d2230                D_800D2230
                0x00000000800d2284                D_800D2284
                0x00000000800d2294                D_800D2294
                0x00000000800d229c                D_800D229C
                0x00000000800d22ac                D_800D22AC
                0x00000000800d22bc                D_800D22BC
                0x00000000800d22c0                D_800D22C0
                0x00000000800d23fc                D_800D23FC
                0x00000000800d24a8                D_800D24A8
                0x00000000800d24b4                D_800D24B4
                0x00000000800d24c0                D_800D24C0
                0x00000000800d24cc                D_800D24CC
                0x00000000800d24d8                D_800D24D8
                0x00000000800d24ec                D_800D24EC
                0x00000000800d24f4                D_800D24F4
                0x00000000800d2504                D_800D2504
                0x00000000800d2514                D_800D2514
                0x00000000800d258c                D_800D258C
                0x00000000800d25bc                D_800D25BC
                0x00000000800d2690                D_800D2690
                0x00000000800d26e0                D_800D26E0
                0x00000000800d26f4                D_800D26F4
                0x00000000800d2714                D_800D2714
                0x00000000800d271c                D_800D271C
                0x00000000800d2750                D_800D2750
                0x00000000800d27b0                D_800D27B0
                0x00000000800d27f8                D_800D27F8
                0x00000000800d2814                D_800D2814
                0x00000000800d281c                D_800D281C
                0x00000000800d282c                D_800D282C
                0x00000000800d2854                D_800D2854
                0x00000000800d2860                D_800D2860
                0x00000000800d28b0                D_800D28B0
                0x00000000800d28d0                D_800D28D0
                0x00000000800d28e4                D_800D28E4
                0x00000000800d28e8                D_800D28E8
                0x00000000800d28ec                D_800D28EC
                0x00000000800d28f0                D_800D28F0
                0x00000000800d28f4                D_800D28F4
                0x00000000800d28f8                D_800D28F8
                0x00000000800d28fc                D_800D28FC
                0x00000000800d2900                D_800D2900
                0x00000000800d2904                D_800D2904
                0x00000000800d2908                D_800D2908
                0x00000000800d2910                D_800D2910
                0x00000000800d2914                D_800D2914
                0x00000000800d2918                D_800D2918
                0x00000000800d291c                D_800D291C
                0x00000000800d2920                D_800D2920
                0x00000000800d2924                D_800D2924
                0x00000000800d2928                D_800D2928
                0x00000000800d2934                D_800D2934
                0x00000000800d2938                D_800D2938
                0x00000000800d293c                D_800D293C
                0x00000000800d2940                D_800D2940
                0x00000000800d2944                D_800D2944
                0x00000000800d294c                D_800D294C
                0x00000000800d2950                D_800D2950
                0x00000000800d2954                D_800D2954
                0x00000000800d2958                D_800D2958
                0x00000000800d295c                D_800D295C
                0x00000000800d2960                D_800D2960
                0x00000000800d2964                D_800D2964
                0x00000000800d2968                D_800D2968
                0x00000000800d296c                D_800D296C
                0x00000000800d2970                D_800D2970
                0x00000000800d2974                D_800D2974
                0x00000000800d2978                D_800D2978
                0x00000000800d357c                D_800D357C
                0x00000000800d361c                D_800D361C
                0x00000000800d36dc                D_800D36DC
                0x00000000800d36fc                D_800D36FC
                0x00000000800d3730                D_800D3730
                0x00000000800d3740                D_800D3740
                0x00000000800d3748                D_800D3748
                0x00000000800d3750                D_800D3750
                0x00000000800d3758                D_800D3758
                0x00000000800d3760                D_800D3760
                0x00000000800d3768                D_800D3768
                0x00000000800d3770                D_800D3770
                0x00000000800d3778                D_800D3778
                0x00000000800d3780                D_800D3780
                0x00000000800d3788                D_800D3788
                0x00000000800d3790                D_800D3790
                0x00000000800d3798                D_800D3798
                0x00000000800d37a0                D_800D37A0
                0x00000000800d37a4                D_800D37A4
                0x00000000800d37a8                D_800D37A8
                0x00000000800d37ac                D_800D37AC
                0x00000000800d37bc                D_800D37BC
                0x00000000800d3888                D_800D3888
                0x00000000800d38b8                D_800D38B8
                0x00000000800d3ae8                D_800D3AE8
                0x00000000800d3b74                D_800D3B74
                0x00000000800d3b78                D_800D3B78
                0x00000000800d3d20                D_800D3D20
                0x00000000800d3db0                D_800D3DB0
                0x00000000800d3eb0                D_800D3EB0
                0x00000000800d3f10                D_800D3F10
                0x00000000800d3f70                D_800D3F70
                0x00000000800d3fd0                D_800D3FD0
                0x00000000800d4000                D_800D4000
                0x00000000800d401c                D_800D401C
                0x00000000800d4030                D_800D4030
                0x00000000800d4044                D_800D4044
                0x00000000800d4058                D_800D4058
                0x00000000800d406c                D_800D406C
                0x00000000800d4080                D_800D4080
                0x00000000800d4094                D_800D4094
                0x00000000800d40ac                D_800D40AC
                0x00000000800d40c0                D_800D40C0
                0x00000000800d40dc                D_800D40DC
                0x00000000800d40e8                D_800D40E8
                0x00000000800d40f8                D_800D40F8
                0x00000000800d410c                D_800D410C
                0x00000000800d4130                D_800D4130
                0x00000000800d4134                D_800D4134
                0x00000000800d4138                D_800D4138
                0x00000000800d413c                D_800D413C
                0x00000000800d4148                D_800D4148
                0x00000000800d4158                D_800D4158
                0x00000000800d415c                D_800D415C
                0x00000000800d4160                D_800D4160
                0x00000000800d4164                D_800D4164
                0x00000000800d416c                D_800D416C
                0x00000000800d4174                D_800D4174
                0x00000000800d4180                D_800D4180
                0x00000000800d4184                D_800D4184
                0x00000000800d431c                D_800D431C
                0x00000000800d4350                D_800D4350
                0x00000000800d4384                D_800D4384
                0x00000000800d43a4                D_800D43A4
                0x00000000800d43c4                D_800D43C4
                0x00000000800d43e4                D_800D43E4
                0x00000000800d4404                D_800D4404
                0x00000000800d4424                D_800D4424
                0x00000000800d4444                D_800D4444
                0x00000000800d4464                D_800D4464
                0x00000000800d4484                D_800D4484
                0x00000000800d4490                D_800D4490
                0x00000000800d44a8                D_800D44A8
                0x00000000800d44bc                D_800D44BC
                0x00000000800d44d0                D_800D44D0
                0x00000000800d44e4                D_800D44E4
                0x00000000800d44f4                D_800D44F4
                0x00000000800d4508                D_800D4508
                0x00000000800d4518                D_800D4518
                0x00000000800d452c                D_800D452C
                0x00000000800d453c                D_800D453C
                0x00000000800d4544                D_800D4544
                0x00000000800d4550                D_800D4550
                0x00000000800d4568                D_800D4568
                0x00000000800d4580                D_800D4580
                0x00000000800d45a4                D_800D45A4
                0x00000000800d45e8                D_800D45E8
                0x00000000800d45f8                D_800D45F8
                0x00000000800d4610                D_800D4610
                0x00000000800d4620                D_800D4620
                0x00000000800d4634                D_800D4634
                0x00000000800d4684                D_800D4684
                0x00000000800d46a8                D_800D46A8
                0x00000000800d46cc                D_800D46CC
                0x00000000800d46e4                D_800D46E4
                0x00000000800d46fc                D_800D46FC
                0x00000000800d471c                D_800D471C
                0x00000000800d473c                D_800D473C
                0x00000000800d475c                D_800D475C
                0x00000000800d477c                D_800D477C
                0x00000000800d478c                D_800D478C
                0x00000000800d47a4                D_800D47A4
                0x00000000800d47b4                D_800D47B4
                0x00000000800d47c8                D_800D47C8
                0x00000000800d483c                D_800D483C
                0x00000000800d4884                D_800D4884
                0x00000000800d48bc                D_800D48BC
                0x00000000800d48d4                D_800D48D4
                0x00000000800d4900                D_800D4900
                0x00000000800d492c                D_800D492C
                0x00000000800d4958                D_800D4958
                0x00000000800d4974                D_800D4974
                0x00000000800d4990                D_800D4990
                0x00000000800d49ac                D_800D49AC
                0x00000000800d49ec                D_800D49EC
                0x00000000800d4a28                D_800D4A28
                0x00000000800d4a44                D_800D4A44
                0x00000000800d4a68                D_800D4A68
                0x00000000800d4a7c                D_800D4A7C
                0x00000000800d4a90                D_800D4A90
                0x00000000800d4aa4                D_800D4AA4
                0x00000000800d4b14                D_800D4B14
                0x00000000800d4b30                D_800D4B30
                0x00000000800d4b48                D_800D4B48
                0x00000000800d4b5c                D_800D4B5C
                0x00000000800d4b70                D_800D4B70
                0x00000000800d4b94                D_800D4B94
                0x00000000800d4bb8                D_800D4BB8
                0x00000000800d4bd4                D_800D4BD4
                0x00000000800d4bf8                D_800D4BF8
                0x00000000800d4c1c                D_800D4C1C
                0x00000000800d4c30                D_800D4C30
                0x00000000800d4c50                D_800D4C50
                0x00000000800d4c78                D_800D4C78
                0x00000000800d4c88                D_800D4C88
                0x00000000800d4cb0                D_800D4CB0
                0x00000000800d4ce4                D_800D4CE4
                0x00000000800d4d08                D_800D4D08
                0x00000000800d4d20                D_800D4D20
                0x00000000800d4d34                D_800D4D34
                0x00000000800d4d48                D_800D4D48
                0x00000000800d4d5c                D_800D4D5C
                0x00000000800d4d74                D_800D4D74
                0x00000000800d4d88                D_800D4D88
                0x00000000800d4da0                D_800D4DA0
                0x00000000800d4db8                D_800D4DB8
                0x00000000800d4dd0                D_800D4DD0
                0x00000000800d4de8                D_800D4DE8
                0x00000000800d4e0c                D_800D4E0C
                0x00000000800d4e24                D_800D4E24
                0x00000000800d4e3c                D_800D4E3C
                0x00000000800d4e68                D_800D4E68
                0x00000000800d4e84                D_800D4E84
                0x00000000800d4ea8                D_800D4EA8
                0x00000000800d4ecc                D_800D4ECC
                0x00000000800d4eec                D_800D4EEC
                0x00000000800d4f0c                D_800D4F0C
                0x00000000800d4f6c                D_800D4F6C
                0x00000000800d4f90                D_800D4F90
                0x00000000800d4fc4                D_800D4FC4
                0x00000000800d5028                D_800D5028
                0x00000000800d5068                D_800D5068
                0x00000000800d5080                D_800D5080
                0x00000000800d50bc                D_800D50BC
                0x00000000800d50f0                D_800D50F0
                0x00000000800d5108                D_800D5108
                0x00000000800d5150                D_800D5150
                0x00000000800d5164                D_800D5164
                0x00000000800d5178                D_800D5178
                0x00000000800d518c                D_800D518C
                0x00000000800d51a0                D_800D51A0
                0x00000000800d51b4                D_800D51B4
                0x00000000800d51c8                D_800D51C8
                0x00000000800d51dc                D_800D51DC
                0x00000000800d51f0                D_800D51F0
                0x00000000800d520c                D_800D520C
                0x00000000800d5224                D_800D5224
                0x00000000800d5238                D_800D5238
                0x00000000800d524c                D_800D524C
                0x00000000800d5264                D_800D5264
                0x00000000800d527c                D_800D527C
                0x00000000800d5290                D_800D5290
                0x00000000800d52a4                D_800D52A4
                0x00000000800d52b8                D_800D52B8
                0x00000000800d52cc                D_800D52CC
                0x00000000800d52e0                D_800D52E0
                0x00000000800d52f4                D_800D52F4
                0x00000000800d5308                D_800D5308
                0x00000000800d5328                D_800D5328
                0x00000000800d5348                D_800D5348
                0x00000000800d538c                D_800D538C
                0x00000000800d53b8                D_800D53B8
                0x00000000800d53d0                D_800D53D0
                0x00000000800d5448                D_800D5448
                0x00000000800d5458                D_800D5458
                0x00000000800d5470                D_800D5470
                0x00000000800d54ec                D_800D54EC
                0x00000000800d5794                D_800D5794
                0x00000000800d57e0                D_800D57E0
                0x00000000800d5820                D_800D5820
                0x00000000800d5824                D_800D5824
                0x00000000800d5828                D_800D5828
                0x00000000800d582c                D_800D582C
                0x00000000800d5830                D_800D5830
                0x00000000800d5834                D_800D5834
                0x00000000800d5838                D_800D5838
                0x00000000800d5878                D_800D5878
                0x00000000800d5c78                D_800D5C78
                0x00000000800d5c88                D_800D5C88
                0x00000000800d6088                D_800D6088
                0x00000000800d60b8                D_800D60B8
                0x00000000800d60e8                D_800D60E8
                0x00000000800d61d8                D_800D61D8
                0x00000000800d62d8                D_800D62D8
                0x00000000800d63c8                D_800D63C8
                0x00000000800d64c8                D_800D64C8
                0x00000000800d64f8                D_800D64F8
                0x00000000800d6650                D_800D6650
                0x00000000800d6680                D_800D6680
                0x00000000800d66b0                D_800D66B0
                0x00000000800d66e0                D_800D66E0
                0x00000000800d6710                D_800D6710
                0x00000000800d6740                D_800D6740
                0x00000000800d6770                D_800D6770
                0x00000000800d67a0                D_800D67A0
                0x00000000800d67d0                D_800D67D0
                0x00000000800d6800                D_800D6800
                0x00000000800d6830                D_800D6830
                0x00000000800d6860                D_800D6860
                0x00000000800d6890                D_800D6890
                0x00000000800d68c0                D_800D68C0
                0x00000000800d68f0                D_800D68F0
                0x00000000800d6920                D_800D6920
                0x00000000800d6950                D_800D6950
                0x00000000800d6980                D_800D6980
                0x00000000800d69b0                D_800D69B0
                0x00000000800d69e0                D_800D69E0
                0x00000000800d6a10                D_800D6A10
                0x00000000800d6a40                D_800D6A40
                0x00000000800d6a70                D_800D6A70
                0x00000000800d6aa0                D_800D6AA0
                0x00000000800d6ad0                D_800D6AD0
                0x00000000800d6b00                D_800D6B00
                0x00000000800d6b30                D_800D6B30
                0x00000000800d6b60                D_800D6B60
                0x00000000800d6b90                D_800D6B90
                0x00000000800d6bc0                D_800D6BC0
                0x00000000800d6bf0                D_800D6BF0
                0x00000000800d6c20                D_800D6C20
                0x00000000800d6c50                D_800D6C50
                0x00000000800d6c80                D_800D6C80
                0x00000000800d6cb0                D_800D6CB0
                0x00000000800d6ce0                D_800D6CE0
                0x00000000800d6d10                D_800D6D10
                0x00000000800d6d40                D_800D6D40
                0x00000000800d6d70                D_800D6D70
                0x00000000800d6da0                D_800D6DA0
                0x00000000800d6dd0                D_800D6DD0
                0x00000000800d70c8                D_800D70C8
                0x00000000800d73c0                D_800D73C0
                0x00000000800d73cc                D_800D73CC
                0x00000000800d7448                D_800D7448
                0x00000000800d74a0                D_800D74A0
                0x00000000800d7508                D_800D7508
                0x00000000800d7520                D_800D7520
                0x00000000800d7524                D_800D7524
                0x00000000800d7528                D_800D7528
                0x00000000800d752c                D_800D752C
                0x00000000800d7530                D_800D7530
                0x00000000800d7534                D_800D7534
                0x00000000800d7538                D_800D7538
                0x00000000800d753c                D_800D753C
                0x00000000800d7540                D_800D7540
                0x00000000800d7544                D_800D7544
                0x00000000800d7548                D_800D7548
                0x00000000800d754c                D_800D754C
                0x00000000800d7550                D_800D7550
                0x00000000800d7554                D_800D7554
                0x00000000800d7558                D_800D7558
                0x00000000800d755c                D_800D755C
                0x00000000800d7560                D_800D7560
                0x00000000800d75a0                D_800D75A0
                0x00000000800d75d8                D_800D75D8
                0x00000000800d76d8                D_800D76D8
                0x00000000800d7af8                D_800D7AF8
                0x00000000800d7c30                D_800D7C30
                0x00000000800d7c40                D_800D7C40
                0x00000000800d7c50                D_800D7C50
                0x00000000800d7c78                D_800D7C78
                0x00000000800d7c80                D_800D7C80
                0x00000000800d7c88                D_800D7C88
                0x00000000800d7c90                D_800D7C90
                0x00000000800d7c98                D_800D7C98
                0x00000000800d7ca0                D_800D7CA0
                0x00000000800d7ca8                D_800D7CA8
                0x00000000800d7cb0                D_800D7CB0
                0x00000000800d7cb8                D_800D7CB8
                0x00000000800d7cc0                D_800D7CC0
                0x00000000800d7cd4                D_800D7CD4
                0x00000000800d7d04                D_800D7D04
                0x00000000800d7d34                D_800D7D34
                0x00000000800d7d64                D_800D7D64
                0x00000000800d7d94                D_800D7D94
                0x00000000800d7dc4                D_800D7DC4
                0x00000000800d7dd8                D_800D7DD8
                0x00000000800d7e48                D_800D7E48
                0x00000000800d7e68                D_800D7E68
                0x00000000800d7e88                D_800D7E88
                0x00000000800d7e90                D_800D7E90
                0x00000000800d7eb0                D_800D7EB0
                0x00000000800d7ebc                D_800D7EBC
                0x00000000800d7ed8                D_800D7ED8
                0x00000000800d7f00                D_800D7F00
                0x00000000800d8028                D_800D8028
                0x00000000800d8034                D_800D8034
                0x00000000800d8040                D_800D8040
                0x00000000800d804c                D_800D804C
                0x00000000800d8058                D_800D8058
                0x00000000800d8064                D_800D8064
                0x00000000800d8070                D_800D8070
                0x00000000800d807c                D_800D807C
                0x00000000800d8088                D_800D8088
                0x00000000800d80a8                D_800D80A8
                0x00000000800d80c0                D_800D80C0
                0x00000000800d80c8                D_800D80C8
                0x00000000800d80d0                D_800D80D0
                0x00000000800d80f0                D_800D80F0
                0x00000000800d8108                D_800D8108
                0x00000000800d8118                D_800D8118
                0x00000000800d8190                D_800D8190
                0x00000000800d8198                D_800D8198
                0x00000000800d81a0                D_800D81A0
                0x00000000800d81ac                D_800D81AC
                0x00000000800d81b8                D_800D81B8
                0x00000000800d81c8                D_800D81C8
                0x00000000800d81d8                D_800D81D8
                0x00000000800d81f8                D_800D81F8
                0x00000000800d8210                D_800D8210
                0x00000000800d821c                D_800D821C
                0x00000000800d8240                D_800D8240
                0x00000000800d8258                D_800D8258
                0x00000000800d8268                D_800D8268
                0x00000000800d82bc                D_800D82BC
                0x00000000800d82dc                D_800D82DC
                0x00000000800d84c8                D_800D84C8
                0x00000000800d84e8                D_800D84E8
                0x00000000800d8508                D_800D8508
                0x00000000800d8528                D_800D8528
                0x00000000800d8548                D_800D8548
                0x00000000800d8568                D_800D8568
                0x00000000800d8588                D_800D8588
                0x00000000800d85a8                D_800D85A8
                0x00000000800d85c8                D_800D85C8
                0x00000000800d85e8                D_800D85E8
                0x00000000800d8608                D_800D8608
                0x00000000800d8628                D_800D8628
                0x00000000800d8648                D_800D8648
                0x00000000800d8668                D_800D8668
                0x00000000800d8688                D_800D8688
                0x00000000800d86a0                D_800D86A0
                0x00000000800d86a8                D_800D86A8
                0x00000000800d86c8                D_800D86C8
                0x00000000800d86d8                D_800D86D8
                0x00000000800d8750                D_800D8750
                0x00000000800d87c8                D_800D87C8
                0x00000000800d8840                D_800D8840
                0x00000000800d88b8                D_800D88B8
                0x00000000800d8930                D_800D8930
                0x00000000800d89a8                D_800D89A8
                0x00000000800d8a20                D_800D8A20
                0x00000000800d8a98                D_800D8A98
                0x00000000800d8b10                D_800D8B10
                0x00000000800d8b88                D_800D8B88
                0x00000000800d8c00                D_800D8C00
                0x00000000800d8c78                D_800D8C78
                0x00000000800d8cf0                D_800D8CF0
                0x00000000800d8d68                D_800D8D68
                0x00000000800d8de0                D_800D8DE0
                0x00000000800d8e64                D_800D8E64
                0x00000000800d8f84                D_800D8F84
                0x00000000800d90a4                D_800D90A4
                0x00000000800d9284                D_800D9284
                0x00000000800d9474                D_800D9474
                0x00000000800d9664                D_800D9664
                0x00000000800d9754                D_800D9754
                0x00000000800d9844                D_800D9844
                0x00000000800d98f4                D_800D98F4
                0x00000000800d99a4                D_800D99A4
                0x00000000800d9a54                D_800D9A54
                0x00000000800d9ae4                D_800D9AE4
                0x00000000800d9af4                D_800D9AF4
                0x00000000800d9b64                D_800D9B64
                0x00000000800d9b7c                D_800D9B7C
                0x00000000800d9bc4                D_800D9BC4
                0x00000000800d9c7c                D_800D9C7C
                0x00000000800d9cc4                D_800D9CC4
                0x00000000800d9d7c                D_800D9D7C
                0x00000000800d9dc4                D_800D9DC4
                0x00000000800d9e7c                D_800D9E7C
                0x00000000800d9ec4                D_800D9EC4
                0x00000000800d9f7c                D_800D9F7C
                0x00000000800d9fc4                D_800D9FC4
                0x00000000800da07c                D_800DA07C
                0x00000000800da27c                D_800DA27C
                0x00000000800da47c                D_800DA47C
                0x00000000800da67c                D_800DA67C
                0x00000000800da87c                D_800DA87C
                0x00000000800daa7c                D_800DAA7C
                0x00000000800dac7c                D_800DAC7C
                0x00000000800dae7c                D_800DAE7C
                0x00000000800db07c                D_800DB07C
                0x00000000800db27c                D_800DB27C
                0x00000000800db47c                D_800DB47C
                0x00000000800db67c                D_800DB67C
                0x00000000800db87c                D_800DB87C
                0x00000000800dba7c                D_800DBA7C
                0x00000000800dbc7c                D_800DBC7C
                0x00000000800dbe7c                D_800DBE7C
                0x00000000800dc07c                D_800DC07C
                0x00000000800dc27c                D_800DC27C
                0x00000000800dc47c                D_800DC47C
                0x00000000800dc67c                D_800DC67C
                0x00000000800dc87c                D_800DC87C
                0x00000000800dca7c                D_800DCA7C
                0x00000000800dcc7c                D_800DCC7C
                0x00000000800dce7c                D_800DCE7C
                0x00000000800dd07c                D_800DD07C
                0x00000000800dd27c                D_800DD27C
                0x00000000800dd47c                D_800DD47C
                0x00000000800dd4dc                D_800DD4DC
                0x00000000800dd67c                D_800DD67C
                0x00000000800dd6dc                D_800DD6DC
                0x00000000800dd87c                D_800DD87C
                0x00000000800dd8dc                D_800DD8DC
                0x00000000800dda88                D_800DDA88
                0x00000000800ddc48                D_800DDC48
                0x00000000800dde08                D_800DDE08
                0x00000000800ddfc8                D_800DDFC8
                0x00000000800de188                D_800DE188
                0x00000000800de1c0                D_800DE1C0
                0x00000000800de1f8                D_800DE1F8
                0x00000000800de230                D_800DE230
                0x00000000800de268                D_800DE268
                0x00000000800de2a0                D_800DE2A0
                0x00000000800de2d8                D_800DE2D8
                0x00000000800de310                D_800DE310
                0x00000000800de348                D_800DE348
                0x00000000800de508                D_800DE508
                0x00000000800de540                D_800DE540
                0x00000000800de578                D_800DE578
                0x00000000800de5b0                D_800DE5B0
                0x00000000800de5e8                D_800DE5E8
                0x00000000800de620                D_800DE620
                0x00000000800de658                D_800DE658
                0x00000000800de690                D_800DE690
                0x00000000800de6c8                D_800DE6C8
                0x00000000800de888                D_800DE888
                0x00000000800dea48                D_800DEA48
                0x00000000800dec08                D_800DEC08
                0x00000000800dedc8                D_800DEDC8
                0x00000000800def88                D_800DEF88
                0x00000000800df148                D_800DF148
                0x00000000800df308                D_800DF308
                0x00000000800df4c8                D_800DF4C8
                0x00000000800df688                D_800DF688
                0x00000000800df848                D_800DF848
                0x00000000800dfa48                D_800DFA48
                0x00000000800dfc48                D_800DFC48
                0x00000000800dfe48                D_800DFE48
                0x00000000800e0048                D_800E0048
                0x00000000800e0248                D_800E0248
                0x00000000800e0448                D_800E0448
                0x00000000800e0654                D_800E0654
                0x00000000800e0854                D_800E0854
                0x00000000800e0a54                D_800E0A54
                0x00000000800e0f00                D_800E0F00
                0x00000000800e0f08                D_800E0F08
                0x00000000800e0f24                D_800E0F24
                0x00000000800e0f28                D_800E0F28
                0x00000000800e0f34                D_800E0F34
                0x00000000800e0f44                D_800E0F44
                0x00000000800e0f60                D_800E0F60
                0x00000000800e0f74                D_800E0F74
                0x00000000800e0f88                D_800E0F88
                0x00000000800e10d0                D_800E10D0
                0x00000000800e11c0                D_800E11C0
                0x00000000800e11c8                D_800E11C8
                0x00000000800e11f0                D_800E11F0
                0x00000000800e1218                D_800E1218
                0x00000000800e1240                D_800E1240
                0x00000000800e1268                D_800E1268
                0x00000000800e1290                D_800E1290
                0x00000000800e1298                D_800E1298
                0x00000000800e12b8                D_800E12B8
                0x00000000800e12e0                D_800E12E0
                0x00000000800e1308                D_800E1308
                0x00000000800e1330                D_800E1330
                0x00000000800e1380                D_800E1380
                0x00000000800e13dc                D_800E13DC
                0x00000000800e13fc                D_800E13FC
                0x00000000800e1450                D_800E1450
                0x00000000800e1474                D_800E1474
                0x00000000800e14c8                D_800E14C8
                0x00000000800e14e8                D_800E14E8
                0x00000000800e1540                D_800E1540
                0x00000000800e154c                D_800E154C
                0x00000000800e155c                D_800E155C
                0x00000000800e156c                D_800E156C
                0x00000000800e1574                D_800E1574
                0x00000000800e157c                D_800E157C
                0x00000000800e158c                D_800E158C
                0x00000000800e15c4                D_800E15C4
                0x00000000800e1604                D_800E1604
                0x00000000800e164c                D_800E164C
                0x00000000800e1700                D_800E1700
                0x00000000800e1728                D_800E1728
                0x00000000800e1750                D_800E1750
                0x00000000800e176c                D_800E176C
                0x00000000800e1788                D_800E1788
                0x00000000800e17a4                D_800E17A4
                0x00000000800e17dc                D_800E17DC
                0x00000000800e17f8                D_800E17F8
                0x00000000800e1888                D_800E1888
                0x00000000800e1898                D_800E1898
                0x00000000800e18b4                D_800E18B4
                0x00000000800e18dc                D_800E18DC
                0x00000000800e18f0                D_800E18F0
                0x00000000800e1900                D_800E1900
                0x00000000800e1924                D_800E1924
                0x00000000800e1934                D_800E1934
                0x00000000800e1950                D_800E1950
                0x00000000800e1978                D_800E1978
                0x00000000800e198c                D_800E198C
                0x00000000800e199c                D_800E199C
                0x00000000800e19c0                D_800E19C0
                0x00000000800e19e8                D_800E19E8
                0x00000000800e1a8c                D_800E1A8C
                0x00000000800e1be0                D_800E1BE0
                0x00000000800e1bf4                D_800E1BF4
                0x00000000800e1c00                D_800E1C00
                0x00000000800e1c1c                D_800E1C1C
                0x00000000800e1c2c                D_800E1C2C
                0x00000000800e1c78                D_800E1C78
                0x00000000800e1c84                D_800E1C84
                0x00000000800e1c9c                D_800E1C9C
                0x00000000800e1cc4                D_800E1CC4
                0x00000000800e1ce8                D_800E1CE8
                0x00000000800e1d0c                D_800E1D0C
                0x00000000800e1d30                D_800E1D30
                0x00000000800e1d54                D_800E1D54
                0x00000000800e1d84                D_800E1D84
                0x00000000800e1d8c                D_800E1D8C
                0x00000000800e1da4                D_800E1DA4
                0x00000000800e1db8                D_800E1DB8
                0x00000000800e1dcc                D_800E1DCC
                0x00000000800e1dec                D_800E1DEC
                0x00000000800e1e00                D_800E1E00
                0x00000000800e1e10                D_800E1E10
                0x00000000800e1e24                D_800E1E24
                0x00000000800e1e38                D_800E1E38
                0x00000000800e1e48                D_800E1E48
                0x00000000800e1e5c                D_800E1E5C
                0x00000000800e1e70                D_800E1E70
                0x00000000800e1e80                D_800E1E80
                0x00000000800e1eac                D_800E1EAC
                0x00000000800e1eb8                D_800E1EB8
                0x00000000800e1ec8                D_800E1EC8
                0x00000000800e1ef8                D_800E1EF8
                0x00000000800e1f08                D_800E1F08
                0x00000000800e1f24                D_800E1F24
                0x00000000800e1f34                D_800E1F34
                0x00000000800e1f44                D_800E1F44
                0x00000000800e1f58                D_800E1F58
                0x00000000800e1f64                D_800E1F64
                0x00000000800e1f88                D_800E1F88
                0x00000000800e1fb4                D_800E1FB4
                0x00000000800e2024                D_800E2024
                0x00000000800e2034                D_800E2034
                0x00000000800e2044                D_800E2044
                0x00000000800e205c                D_800E205C
                0x00000000800e206c                D_800E206C
                0x00000000800e209c                D_800E209C
                0x00000000800e20c4                D_800E20C4
                0x00000000800e20e0                D_800E20E0
                0x00000000800e20fc                D_800E20FC
                0x00000000800e2150                D_800E2150
                0x00000000800e216c                D_800E216C
                0x00000000800e223c                D_800E223C
                0x00000000800e2250                D_800E2250
                0x00000000800e2268                D_800E2268
                0x00000000800e2274                D_800E2274
                0x00000000800e22a8                D_800E22A8
                0x00000000800e22b4                D_800E22B4
                0x00000000800e22cc                D_800E22CC
                0x00000000800e22f8                D_800E22F8
                0x00000000800e2314                D_800E2314
                0x00000000800e2330                D_800E2330
                0x00000000800e2364                D_800E2364
                0x00000000800e2374                D_800E2374
                0x00000000800e23a4                D_800E23A4
                0x00000000800e2450                D_800E2450
                0x00000000800e2464                D_800E2464
                0x00000000800e24a0                D_800E24A0
                0x00000000800e2514                D_800E2514
                0x00000000800e2528                D_800E2528
                0x00000000800e2550                D_800E2550
                0x00000000800e2564                D_800E2564
                0x00000000800e2578                D_800E2578
                0x00000000800e25b0                D_800E25B0
                0x00000000800e2600                D_800E2600
                0x00000000800e2684                D_800E2684
                0x00000000800e26bc                D_800E26BC
                0x00000000800e26f4                D_800E26F4
                0x00000000800e272c                D_800E272C
                0x00000000800e2764                D_800E2764
                0x00000000800e279c                D_800E279C
                0x00000000800e27dc                D_800E27DC
                0x00000000800e2814                D_800E2814
                0x00000000800e284c                D_800E284C
                0x00000000800e2884                D_800E2884
                0x00000000800e28bc                D_800E28BC
                0x00000000800e28f4                D_800E28F4
                0x00000000800e292c                D_800E292C
                0x00000000800e2964                D_800E2964
                0x00000000800e299c                D_800E299C
                0x00000000800e29d4                D_800E29D4
                0x00000000800e2a0c                D_800E2A0C
                0x00000000800e2a44                D_800E2A44
                0x00000000800e2a7c                D_800E2A7C
                0x00000000800e2ab4                D_800E2AB4
                0x00000000800e2aec                D_800E2AEC
                0x00000000800e2b24                D_800E2B24
                0x00000000800e2b5c                D_800E2B5C
                0x00000000800e2b94                D_800E2B94
                0x00000000800e2bcc                D_800E2BCC
                0x00000000800e2c04                D_800E2C04
                0x00000000800e2c3c                D_800E2C3C
                0x00000000800e2c74                D_800E2C74
                0x00000000800e2cac                D_800E2CAC
                0x00000000800e2ce4                D_800E2CE4
                0x00000000800e2d1c                D_800E2D1C
                0x00000000800e2d54                D_800E2D54
                0x00000000800e2d8c                D_800E2D8C
                0x00000000800e2dc4                D_800E2DC4
                0x00000000800e2dfc                D_800E2DFC
                0x00000000800e2e34                D_800E2E34
                0x00000000800e2e6c                D_800E2E6C
                0x00000000800e2ea4                D_800E2EA4
                0x00000000800e2edc                D_800E2EDC
                0x00000000800e2f14                D_800E2F14
                0x00000000800e2f4c                D_800E2F4C
                0x00000000800e2f84                D_800E2F84
                0x00000000800e2fbc                D_800E2FBC
                0x00000000800e2ff4                D_800E2FF4
                0x00000000800e302c                D_800E302C
                0x00000000800e3064                D_800E3064
                0x00000000800e309c                D_800E309C
                0x00000000800e30d4                D_800E30D4
                0x00000000800e310c                D_800E310C
                0x00000000800e3144                D_800E3144
                0x00000000800e317c                D_800E317C
                0x00000000800e31b4                D_800E31B4
                0x00000000800e31ec                D_800E31EC
                0x00000000800e334c                D_800E334C
                0x00000000800e3570                D_800E3570
                0x00000000800e3574                D_800E3574
                0x00000000800e3578                D_800E3578
                0x00000000800e357c                D_800E357C
                0x00000000800e3580                D_800E3580
                0x00000000800e3584                D_800E3584
                0x00000000800e3590                D_800E3590
                0x00000000800e35e0                D_800E35E0
                0x00000000800e3630                D_800E3630
                0x00000000800e38a0                D_800E38A0
                0x00000000800e38b0                D_800E38B0
                0x00000000800e3930                D_800E3930
                0x00000000800e3978                D_800E3978
                0x00000000800e3998                D_800E3998
                0x00000000800e39c0                D_800E39C0
                0x00000000800e3a30                D_800E3A30
                0x00000000800e3a50                D_800E3A50
                0x00000000800e3a88                D_800E3A88
                0x00000000800e3ab0                D_800E3AB0
                0x00000000800e3ab8                D_800E3AB8
                0x00000000800e3ac8                D_800E3AC8
                0x00000000800e3b18                D_800E3B18
                0x00000000800e3b20                D_800E3B20
                0x00000000800e3b30                D_800E3B30
                0x00000000800e3b40                D_800E3B40
                0x00000000800e3b50                D_800E3B50
                0x00000000800e3b60                D_800E3B60
                0x00000000800e3bc8                D_800E3BC8
                0x00000000800e3bd0                D_800E3BD0
                0x00000000800e3be0                D_800E3BE0
                0x00000000800e3bf0                D_800E3BF0
                0x00000000800e3c48                D_800E3C48
                0x00000000800e3c50                D_800E3C50
                0x00000000800e3c60                D_800E3C60
                0x00000000800e3cb0                D_800E3CB0
                0x00000000800e3cb8                D_800E3CB8
                0x00000000800e3cc8                D_800E3CC8
                0x00000000800e3d20                D_800E3D20
                0x00000000800e3d2c                D_800E3D2C
                0x00000000800e3d4c                D_800E3D4C
                0x00000000800e3d64                D_800E3D64
                0x00000000800e3d78                D_800E3D78
                0x00000000800e3d8c                D_800E3D8C
                0x00000000800e3da0                D_800E3DA0
                0x00000000800e3db8                D_800E3DB8
                0x00000000800e3dbc                D_800E3DBC
                0x00000000800e3ddc                D_800E3DDC
                0x00000000800e3de4                D_800E3DE4
                0x00000000800e3e24                D_800E3E24
                0x00000000800e41a4                D_800E41A4
                0x00000000800e41b4                D_800E41B4
                0x00000000800e41c4                D_800E41C4
                0x00000000800e42f0                D_800E42F0
                0x00000000800e42f4                D_800E42F4
                0x00000000800e4304                D_800E4304
                0x00000000800e4318                D_800E4318
                0x00000000800e4360                D_800E4360
                0x00000000800e4374                D_800E4374
                0x00000000800e4388                D_800E4388
                0x00000000800e442c                D_800E442C
                0x00000000800e4440                D_800E4440
                0x00000000800e4458                D_800E4458
                0x00000000800e4474                D_800E4474
                0x00000000800e44c0                D_800E44C0
                0x00000000800e44c8                D_800E44C8
                0x00000000800e44dc                D_800E44DC
                0x00000000800e44f0                D_800E44F0
                0x00000000800e4534                D_800E4534
                0x00000000800e4560                D_800E4560
                0x00000000800e457c                D_800E457C
                0x00000000800e4594                D_800E4594
                0x00000000800e47e4                D_800E47E4
                0x00000000800e486c                D_800E486C
                0x00000000800e48f4                D_800E48F4
                0x00000000800e497c                D_800E497C
                0x00000000800e4a04                D_800E4A04
                0x00000000800e4a8c                D_800E4A8C
                0x00000000800e4b14                D_800E4B14
                0x00000000800e4b9c                D_800E4B9C
                0x00000000800e4c24                D_800E4C24
                0x00000000800e4cac                D_800E4CAC
                0x00000000800e4d34                D_800E4D34
                0x00000000800e4dbc                D_800E4DBC
                0x00000000800e4e44                D_800E4E44
                0x00000000800e4ecc                D_800E4ECC
                0x00000000800e4f54                D_800E4F54
                0x00000000800e4fdc                D_800E4FDC
                0x00000000800e5064                D_800E5064
                0x00000000800e50ec                D_800E50EC
                0x00000000800e5174                D_800E5174
                0x00000000800e51fc                D_800E51FC
                0x00000000800e5284                D_800E5284
                0x00000000800e530c                D_800E530C
                0x00000000800e5394                D_800E5394
                0x00000000800e541c                D_800E541C
                0x00000000800e54a4                D_800E54A4
                0x00000000800e552c                D_800E552C
                0x00000000800e55b4                D_800E55B4
                0x00000000800e563c                D_800E563C
                0x00000000800e56c4                D_800E56C4
                0x00000000800e5a3c                D_800E5A3C
                0x00000000800e5a44                D_800E5A44
                0x00000000800e5a80                D_800E5A80
                0x00000000800e5ac0                D_800E5AC0
                0x00000000800e5b00                D_800E5B00
                0x00000000800e5b8c                D_800E5B8C
                0x00000000800e5c18                D_800E5C18
                0x00000000800e5ca4                D_800E5CA4
                0x00000000800e5d30                D_800E5D30
                0x00000000800e5dbc                D_800E5DBC
                0x00000000800e5e48                D_800E5E48
                0x00000000800e5f30                D_800E5F30
                0x00000000800e5f90                D_800E5F90
                0x00000000800e5ff0                D_800E5FF0
                0x00000000800e6050                D_800E6050
                0x00000000800e60b0                D_800E60B0
                0x00000000800e6110                D_800E6110
                0x00000000800e6170                D_800E6170
                0x00000000800e61d0                D_800E61D0
                0x00000000800e6230                D_800E6230
                0x00000000800e6290                D_800E6290
                0x00000000800e62f0                D_800E62F0
                0x00000000800e6354                D_800E6354
                0x00000000800e63b8                D_800E63B8
                0x00000000800e6418                D_800E6418
                0x00000000800e6478                D_800E6478
                0x00000000800e64d8                D_800E64D8
                0x00000000800e6538                D_800E6538
                0x00000000800e6598                D_800E6598
                0x00000000800e65f8                D_800E65F8
                0x00000000800e6658                D_800E6658
                0x00000000800e66b8                D_800E66B8
                0x00000000800e671c                D_800E671C
                0x00000000800e6780                D_800E6780
                0x00000000800e67e4                D_800E67E4
                0x00000000800e6848                D_800E6848
                0x00000000800e68ac                D_800E68AC
                0x00000000800e6910                D_800E6910
                0x00000000800e6974                D_800E6974
                0x00000000800e69d8                D_800E69D8
                0x00000000800e6a3c                D_800E6A3C
                0x00000000800e6aa0                D_800E6AA0
                0x00000000800e6b04                D_800E6B04
                0x00000000800e6b68                D_800E6B68
                0x00000000800e6bcc                D_800E6BCC
                0x00000000800e6c30                D_800E6C30
                0x00000000800e6c94                D_800E6C94
                0x00000000800e6cf8                D_800E6CF8
                0x00000000800e6d5c                D_800E6D5C
                0x00000000800e6dc0                D_800E6DC0
                0x00000000800e6e24                D_800E6E24
                0x00000000800e6e88                D_800E6E88
                0x00000000800e6eec                D_800E6EEC
                0x00000000800e6f50                D_800E6F50
                0x00000000800e6fb4                D_800E6FB4
                0x00000000800e7018                D_800E7018
                0x00000000800e707c                D_800E707C
                0x00000000800e70e0                D_800E70E0
                0x00000000800e7140                D_800E7140
                0x00000000800e71a0                D_800E71A0
                0x00000000800e7200                D_800E7200
                0x00000000800e7260                D_800E7260
                0x00000000800e72c0                D_800E72C0
                0x00000000800e7320                D_800E7320
                0x00000000800e7380                D_800E7380
                0x00000000800e73e0                D_800E73E0
                0x00000000800e7440                D_800E7440
                0x00000000800e74a0                D_800E74A0
                0x00000000800e7500                D_800E7500
                0x00000000800e7560                D_800E7560
                0x00000000800e75c0                D_800E75C0
                0x00000000800e7620                D_800E7620
                0x00000000800e7680                D_800E7680
                0x00000000800e76e0                D_800E76E0
                0x00000000800e7740                D_800E7740
                0x00000000800e77a0                D_800E77A0
                0x00000000800e7800                D_800E7800
                0x00000000800e7860                D_800E7860
                0x00000000800e78c0                D_800E78C0
                0x00000000800e7920                D_800E7920
                0x00000000800e7980                D_800E7980
                0x00000000800e79e0                D_800E79E0
                0x00000000800e7a40                D_800E7A40
                0x00000000800e7aa0                D_800E7AA0
                0x00000000800e7b00                D_800E7B00
                0x00000000800e7b60                D_800E7B60
                0x00000000800e7bc0                D_800E7BC0
                0x00000000800e7c20                D_800E7C20
                0x00000000800e7c80                D_800E7C80
                0x00000000800e7ce0                D_800E7CE0
                0x00000000800e7d40                D_800E7D40
                0x00000000800e7da0                D_800E7DA0
                0x00000000800e7e00                D_800E7E00
                0x00000000800e7e60                D_800E7E60
                0x00000000800e7ec0                D_800E7EC0
                0x00000000800e7f20                D_800E7F20
                0x00000000800e7f80                D_800E7F80
                0x00000000800e7fe0                D_800E7FE0
                0x00000000800e8040                D_800E8040
                0x00000000800e80a0                D_800E80A0
                0x00000000800e8100                D_800E8100
                0x00000000800e8160                D_800E8160
                0x00000000800e81c0                D_800E81C0
                0x00000000800e8220                D_800E8220
                0x00000000800e8280                D_800E8280
                0x00000000800e82e0                D_800E82E0
                0x00000000800e8340                D_800E8340
                0x00000000800e83a0                D_800E83A0
                0x00000000800e8400                D_800E8400
                0x00000000800e8460                D_800E8460
                0x00000000800e84c0                D_800E84C0
                0x00000000800e8520                D_800E8520
                0x00000000800e8580                D_800E8580
                0x00000000800e85e0                D_800E85E0
                0x00000000800e8640                D_800E8640
                0x00000000800e86a0                D_800E86A0
                0x00000000800e8700                D_800E8700
                0x00000000800e8760                D_800E8760
                0x00000000800e87c0                D_800E87C0
                0x00000000800e8820                D_800E8820
                0x00000000800e89d4                D_800E89D4
                0x00000000800e8a08                D_800E8A08
                0x00000000800e8a48                D_800E8A48
                0x00000000800e8aa8                D_800E8AA8
                0x00000000800e8b98                D_800E8B98
                0x00000000800e8bd0                D_800E8BD0
                0x00000000800e8bec                D_800E8BEC
                0x00000000800e8c08                D_800E8C08
                0x00000000800e8c18                D_800E8C18
                0x00000000800e8c2c                D_800E8C2C
                0x00000000800e8c40                D_800E8C40
                0x00000000800e8c7c                D_800E8C7C
                0x00000000800e8ce4                D_800E8CE4
                0x00000000800e8cf8                D_800E8CF8
                0x00000000800e8d1c                D_800E8D1C
                0x00000000800e8d3c                D_800E8D3C
                0x00000000800e8d4c                D_800E8D4C
                0x00000000800e8d60                D_800E8D60
                0x00000000800e8d8c                D_800E8D8C
                0x00000000800e8db8                D_800E8DB8
                0x00000000800e8dcc                D_800E8DCC
                0x00000000800e8e38                D_800E8E38
                0x00000000800e8eac                D_800E8EAC
                0x00000000800e8ec8                D_800E8EC8
                0x00000000800e8f4c                D_800E8F4C
                0x00000000800e8f60                D_800E8F60
                0x00000000800e8fa4                D_800E8FA4
                0x00000000800e8fc0                D_800E8FC0
                0x00000000800e8ff8                D_800E8FF8
                0x00000000800e9034                D_800E9034
                0x00000000800e905c                D_800E905C
                0x00000000800e90e8                D_800E90E8
                0x00000000800e91e8                D_800E91E8
                0x00000000800e91f0                D_800E91F0
                0x00000000800e91f8                D_800E91F8
                0x00000000800e9204                D_800E9204
                0x00000000800e9210                D_800E9210
                0x00000000800e921c                D_800E921C
                0x00000000800e9224                D_800E9224
                0x00000000800e922c                D_800E922C
                0x00000000800e9248                D_800E9248
                0x00000000800e9260                D_800E9260
                0x00000000800e927c                D_800E927C
                0x00000000800e928c                D_800E928C
                0x00000000800e92ac                D_800E92AC
                0x00000000800e92c4                D_800E92C4
                0x00000000800e92e0                D_800E92E0
                0x00000000800e92e4                D_800E92E4
                0x00000000800e9300                D_800E9300
                0x00000000800e9320                D_800E9320
                0x00000000800e93bc                D_800E93BC
                0x00000000800e93c0                D_800E93C0
                0x00000000800e93c4                D_800E93C4
                0x00000000800e9414                D_800E9414
                0x00000000800e9498                D_800E9498
                0x00000000800e94d0                D_800E94D0
                0x00000000800e9508                D_800E9508
                0x00000000800e9540                D_800E9540
                0x00000000800e9578                D_800E9578
                0x00000000800e95b0                D_800E95B0
                0x00000000800e95e8                D_800E95E8
                0x00000000800e961c                D_800E961C
                0x00000000800e9634                D_800E9634
                0x00000000800e9654                D_800E9654
                0x00000000800e9688                D_800E9688
                0x00000000800e96a0                D_800E96A0
                0x00000000800e96b8                D_800E96B8
                0x00000000800e96d0                D_800E96D0
                0x00000000800e96e8                D_800E96E8
                0x00000000800e9700                D_800E9700
                0x00000000800e9720                D_800E9720
                0x00000000800e9740                D_800E9740
                0x00000000800e974c                D_800E974C
                0x00000000800e9758                D_800E9758
                0x00000000800e9764                D_800E9764
                0x00000000800e976c                D_800E976C
                0x00000000800e9770                D_800E9770
                0x00000000800e9774                D_800E9774
                0x00000000800e9778                D_800E9778
                0x00000000800e977c                D_800E977C
                0x00000000800e9780                D_800E9780
                0x00000000800e9790                D_800E9790
                0x00000000800e9794                D_800E9794
                0x00000000800e9798                D_800E9798
                0x00000000800e979c                D_800E979C
                0x00000000800e97a0                D_800E97A0
                0x00000000800e97a4                D_800E97A4
                0x00000000800e97a8                D_800E97A8
                0x00000000800e97b0                ultralib_vitbl_data__s = .
 build/asm/data/ultralib/vitbl.data.s.o(.data)
 .data          0x00000000800e97b0      0xd20 build/asm/data/ultralib/vitbl.data.s.o
                0x00000000800e97b0                osViModeTable
                0x00000000800ea4d0                EB0D0_bin = .
 build/assets/EB0D0.bin.o(.data)
 .data          0x00000000800ea4d0   0x6fff00 build/assets/EB0D0.bin.o
                0x00000000800ea4d0                _binary_assets_EB0D0_bin_start
                0x00000000807ea3d0                _binary_assets_EB0D0_bin_end
                0x00000000807ea3d0                main_DATA_END = .
                0x000000000072f920                main_DATA_SIZE = ABSOLUTE ((main_DATA_END - main_DATA_START))
                0x00000000807ea3d0                main_RODATA_START = .
 build/src/asm/entrypoint.s.o(.rodata)
 build/src/boot.c.o(.rodata)
 build/asm/23D0.s.o(.rodata)
 build/asm/ultralib/initialize.s.o(.rodata)
 build/asm/ultralib/createthread.s.o(.rodata)
 build/asm/ultralib/startthread.s.o(.rodata)
 build/asm/ultralib/vimgr.s.o(.rodata)
 build/asm/ultralib/visetmode.s.o(.rodata)
 build/asm/ultralib/pimgr.s.o(.rodata)
 build/asm/ultralib/rmonmain.s.o(.rodata)
 build/asm/ultralib/setthreadpri.s.o(.rodata)
 build/asm/ultralib/virtualtophysical.s.o(.rodata)
 build/asm/9B250.s.o(.rodata)
                0x00000000807ea3d0                main_RODATA_END = .
                0x0000000000000000                main_RODATA_SIZE = ABSOLUTE ((main_RODATA_END - main_RODATA_START))
                0x00000000807ea3d0                main_bss_VRAM = ADDR (.main_bss)

.main_bss       0x00000000807ea3d0        0x0 load address 0x00000000007eafd0
                0x00000000807ea3d0                main_BSS_START = .
 build/src/asm/entrypoint.s.o(.bss)
 .bss           0x00000000807ea3d0        0x0 build/src/asm/entrypoint.s.o
 build/src/boot.c.o(.bss)
 build/asm/23D0.s.o(.bss)
 .bss           0x00000000807ea3d0        0x0 build/asm/23D0.s.o
 build/asm/ultralib/initialize.s.o(.bss)
 .bss           0x00000000807ea3d0        0x0 build/asm/ultralib/initialize.s.o
 build/asm/ultralib/createthread.s.o(.bss)
 .bss           0x00000000807ea3d0        0x0 build/asm/ultralib/createthread.s.o
 build/asm/ultralib/startthread.s.o(.bss)
 .bss           0x00000000807ea3d0        0x0 build/asm/ultralib/startthread.s.o
 build/asm/ultralib/vimgr.s.o(.bss)
 .bss           0x00000000807ea3d0        0x0 build/asm/ultralib/vimgr.s.o
 build/asm/ultralib/visetmode.s.o(.bss)
 .bss           0x00000000807ea3d0        0x0 build/asm/ultralib/visetmode.s.o
 build/asm/ultralib/pimgr.s.o(.bss)
 .bss           0x00000000807ea3d0        0x0 build/asm/ultralib/pimgr.s.o
 build/asm/ultralib/rmonmain.s.o(.bss)
 .bss           0x00000000807ea3d0        0x0 build/asm/ultralib/rmonmain.s.o
 build/asm/ultralib/setthreadpri.s.o(.bss)
 .bss           0x00000000807ea3d0        0x0 build/asm/ultralib/setthreadpri.s.o
 build/asm/ultralib/virtualtophysical.s.o(.bss)
 .bss           0x00000000807ea3d0        0x0 build/asm/ultralib/virtualtophysical.s.o
 build/asm/9B250.s.o(.bss)
 .bss           0x00000000807ea3d0        0x0 build/asm/9B250.s.o
                0x00000000807ea3d0                main_BSS_END = .
                0x0000000000000000                main_BSS_SIZE = ABSOLUTE ((main_BSS_END - main_BSS_START))
                0x0000000000800000                __romPos = (__romPos + SIZEOF (.main))
                0x0000000000800000                __romPos = ALIGN (__romPos, 0x10)
                0x00000000007eafd0                main_ROM_END = __romPos
                0x00000000807ea3d0                main_VRAM_END = .
                0x00000000007eafd0                trailer_ROM_START = __romPos
                0x00000000807ea3d0                trailer_VRAM = ADDR (.trailer)

.trailer        0x00000000807ea3d0    0x15030 load address 0x00000000007eafd0
                0x00000000807ea3d0                trailer_DATA_START = .
                0x00000000807ea3d0                trailer_bin = .
 build/assets/trailer.bin.o(.data)
 .data          0x00000000807ea3d0    0x15030 build/assets/trailer.bin.o
                0x00000000807ea3d0                _binary_assets_trailer_bin_start
                0x00000000807ff400                _binary_assets_trailer_bin_end
                0x00000000807ff400                trailer_DATA_END = .
                0x0000000000015030                trailer_DATA_SIZE = ABSOLUTE ((trailer_DATA_END - trailer_DATA_START))
                0x0000000000800000                __romPos = (__romPos + SIZEOF (.trailer))
                0x0000000000800000                trailer_ROM_END = __romPos
                0x00000000807ff400                trailer_VRAM_END = .

/DISCARD/
 *(*)
                0x000000000007ffff                D_7FFFF = 0x7ffff
                0x00000000000f00d0                D_F00D0 = 0xf00d0
                0x00000000000f0100                D_F0100 = 0xf0100
                0x00000000001e6900                D_1E6900 = 0x1e6900
                0x0000000000214b40                D_214B40 = 0x214b40
                0x0000000000248f40                D_248F40 = 0x248f40
                0x000000000040ac80                D_40AC80 = 0x40ac80
                0x00000000004a15a0                D_4A15A0 = 0x4a15a0
                0x00000000004a1fc0                D_4A1FC0 = 0x4a1fc0
                0x00000000004b9990                D_4B9990 = 0x4b9990
                0x00000000004cb120                D_4CB120 = 0x4cb120
                0x00000000006413b0                D_6413B0 = 0x6413b0
                0x0000000001000000                D_1000000 = 0x1000000
                0x00000000010ce330                D_10CE330 = 0x10ce330
                0x000000000119eb70                D_119EB70 = 0x119eb70
                0x00000000011b1bf0                D_11B1BF0 = 0x11b1bf0
                0x00000000011bd940                D_11BD940 = 0x11bd940
                0x00000000011c1d30                D_11C1D30 = 0x11c1d30
                0x0000000004000000                D_4000000 = 0x4000000
                0x000000000407c860                D_407C860 = 0x407c860
                0x0000000004081620                D_4081620 = 0x4081620
                0x0000000004091d20                D_4091D20 = 0x4091d20
                0x00000000040e17f0                D_40E17F0 = 0x40e17f0
                0x00000000040f50f0                D_40F50F0 = 0x40f50f0
                0x00000000040f52f8                D_40F52F8 = 0x40f52f8
                0x0000000005095c98                D_5095C98 = 0x5095c98
                0x000000007fffff00                D_7FFFFF00 = 0x7fffff00
                0x0000000080000000                D_80000000 = 0x80000000
                0x0000000080000004                D_80000004 = 0x80000004
                0x0000000080000008                D_80000008 = 0x80000008
                0x000000008000000c                D_8000000C = 0x8000000c
                0x0000000080000100                D_80000100 = 0x80000100
                0x0000000080000300                osTvType = 0x80000300
                0x0000000080000308                D_80000308 = 0x80000308
                0x000000008000030c                D_8000030C = 0x8000030c
                0x000000008000031c                D_8000031C = 0x8000031c
                0x00000000800a5f00                D_800A5F00 = 0x800a5f00
                0x00000000800a5f24                D_800A5F24 = 0x800a5f24
                0x00000000800a6d80                D_800A6D80 = 0x800a6d80
                0x00000000800be5f6                D_800BE5F6 = 0x800be5f6
                0x00000000800be6b9                D_800BE6B9 = 0x800be6b9
                0x00000000800c2927                D_800C2927 = 0x800c2927
                0x00000000800c94da                D_800C94DA = 0x800c94da
                0x00000000800c95f2                D_800C95F2 = 0x800c95f2
                0x00000000800c96da                D_800C96DA = 0x800c96da
                0x00000000800d16aa                D_800D16AA = 0x800d16aa
                0x00000000800d22be                D_800D22BE = 0x800d22be
                0x00000000800d22c2                D_800D22C2 = 0x800d22c2
                0x00000000800d24ea                D_800D24EA = 0x800d24ea
                0x00000000800d24ee                D_800D24EE = 0x800d24ee
                0x00000000800d82ea                D_800D82EA = 0x800d82ea
                0x00000000800d84ca                D_800D84CA = 0x800d84ca
                0x00000000800db0ba                D_800DB0BA = 0x800db0ba
                0x00000000800db2ba                D_800DB2BA = 0x800db2ba
                0x00000000800db4ba                D_800DB4BA = 0x800db4ba
                0x00000000800db6ba                D_800DB6BA = 0x800db6ba
                0x00000000800db8ba                D_800DB8BA = 0x800db8ba
                0x00000000800dbaba                D_800DBABA = 0x800dbaba
                0x00000000800dbcba                D_800DBCBA = 0x800dbcba
                0x00000000800dbeba                D_800DBEBA = 0x800dbeba
                0x00000000800dc0de                D_800DC0DE = 0x800dc0de
                0x00000000800dc2de                D_800DC2DE = 0x800dc2de
                0x00000000800dc4de                D_800DC4DE = 0x800dc4de
                0x00000000800dc6de                D_800DC6DE = 0x800dc6de
                0x00000000800dc8de                D_800DC8DE = 0x800dc8de
                0x00000000800dcade                D_800DCADE = 0x800dcade
                0x00000000800dccde                D_800DCCDE = 0x800dccde
                0x00000000800ddad6                D_800DDAD6 = 0x800ddad6
                0x00000000800ddc96                D_800DDC96 = 0x800ddc96
                0x00000000800dde56                D_800DDE56 = 0x800dde56
                0x00000000800de016                D_800DE016 = 0x800de016
                0x00000000800de1d6                D_800DE1D6 = 0x800de1d6
                0x00000000800de396                D_800DE396 = 0x800de396
                0x00000000800de716                D_800DE716 = 0x800de716
                0x00000000800de8d6                D_800DE8D6 = 0x800de8d6
                0x00000000800dea96                D_800DEA96 = 0x800dea96
                0x00000000800dec56                D_800DEC56 = 0x800dec56
                0x00000000800dee16                D_800DEE16 = 0x800dee16
                0x00000000800defd6                D_800DEFD6 = 0x800defd6
                0x00000000800df196                D_800DF196 = 0x800df196
                0x00000000800df356                D_800DF356 = 0x800df356
                0x00000000800df516                D_800DF516 = 0x800df516
                0x00000000800df6d6                D_800DF6D6 = 0x800df6d6
                0x00000000800df8de                D_800DF8DE = 0x800df8de
                0x00000000800dfade                D_800DFADE = 0x800dfade
                0x00000000800dfcde                D_800DFCDE = 0x800dfcde
                0x00000000800dfea2                D_800DFEA2 = 0x800dfea2
                0x00000000800e00a2                D_800E00A2 = 0x800e00a2
                0x00000000800e02a2                D_800E02A2 = 0x800e02a2
                0x00000000800e04a2                D_800E04A2 = 0x800e04a2
                0x00000000800ea4d0                D_800EA4D0 = 0x800ea4d0
                0x00000000800ea4d4                D_800EA4D4 = 0x800ea4d4
                0x00000000800ea4d8                D_800EA4D8 = 0x800ea4d8
                0x00000000800ea4dc                D_800EA4DC = 0x800ea4dc
                0x00000000800ea4e0                D_800EA4E0 = 0x800ea4e0
                0x00000000800ea4e4                D_800EA4E4 = 0x800ea4e4
                0x00000000800ea4e8                D_800EA4E8 = 0x800ea4e8
                0x00000000800ea4ec                D_800EA4EC = 0x800ea4ec
                0x00000000800ea4f0                D_800EA4F0 = 0x800ea4f0
                0x00000000800ea500                D_800EA500 = 0x800ea500
                0x00000000800ea510                D_800EA510 = 0x800ea510
                0x00000000800ea520                D_800EA520 = 0x800ea520
                0x00000000800ea530                D_800EA530 = 0x800ea530
                0x00000000800ea540                D_800EA540 = 0x800ea540
                0x00000000800ea544                D_800EA544 = 0x800ea544
                0x00000000800ea550                D_800EA550 = 0x800ea550
                0x00000000800ea560                D_800EA560 = 0x800ea560
                0x00000000800ea564                D_800EA564 = 0x800ea564
                0x00000000800ea568                D_800EA568 = 0x800ea568
                0x00000000800ea56c                D_800EA56C = 0x800ea56c
                0x00000000800ea570                D_800EA570 = 0x800ea570
                0x00000000800ea5d0                D_800EA5D0 = 0x800ea5d0
                0x00000000800ea5d4                D_800EA5D4 = 0x800ea5d4
                0x00000000800ea5e0                D_800EA5E0 = 0x800ea5e0
                0x00000000800ea5f4                D_800EA5F4 = 0x800ea5f4
                0x00000000800ea5f8                D_800EA5F8 = 0x800ea5f8
                0x00000000800ea5fc                D_800EA5FC = 0x800ea5fc
                0x00000000800ea600                D_800EA600 = 0x800ea600
                0x00000000800ea608                D_800EA608 = 0x800ea608
                0x00000000800ea60c                D_800EA60C = 0x800ea60c
                0x00000000800ea610                D_800EA610 = 0x800ea610
                0x00000000800ea614                D_800EA614 = 0x800ea614
                0x00000000800ea620                D_800EA620 = 0x800ea620
                0x00000000800ea630                D_800EA630 = 0x800ea630
                0x00000000800ea640                D_800EA640 = 0x800ea640
                0x00000000800ea650                D_800EA650 = 0x800ea650
                0x00000000800ea660                D_800EA660 = 0x800ea660
                0x00000000800ea6c8                D_800EA6C8 = 0x800ea6c8
                0x00000000800ea750                D_800EA750 = 0x800ea750
                0x00000000800ea778                D_800EA778 = 0x800ea778
                0x00000000800ea7a0                D_800EA7A0 = 0x800ea7a0
                0x00000000800ea7c8                D_800EA7C8 = 0x800ea7c8
                0x00000000800ea7f0                D_800EA7F0 = 0x800ea7f0
                0x00000000800ea8ee                D_800EA8EE = 0x800ea8ee
                0x00000000800ea8f0                D_800EA8F0 = 0x800ea8f0
                0x00000000800ea930                D_800EA930 = 0x800ea930
                0x00000000800ea954                D_800EA954 = 0x800ea954
                0x00000000800ea980                D_800EA980 = 0x800ea980
                0x00000000800ea9d0                D_800EA9D0 = 0x800ea9d0
                0x00000000800eaa20                D_800EAA20 = 0x800eaa20
                0x00000000800eaa70                D_800EAA70 = 0x800eaa70
                0x00000000800eaa84                jtbl_800EAA84 = 0x800eaa84
                0x00000000800eaa90                D_800EAA90 = 0x800eaa90
                0x00000000800eaaa0                D_800EAAA0 = 0x800eaaa0
                0x00000000800eaab0                D_800EAAB0 = 0x800eaab0
                0x00000000800eabb0                D_800EABB0 = 0x800eabb0
                0x00000000800eabc4                D_800EABC4 = 0x800eabc4
                0x00000000800eabe0                D_800EABE0 = 0x800eabe0
                0x00000000800eabe4                D_800EABE4 = 0x800eabe4
                0x00000000800eabf0                jtbl_800EABF0 = 0x800eabf0
                0x00000000800eaefc                D_800EAEFC = 0x800eaefc
                0x00000000800eaf04                D_800EAF04 = 0x800eaf04
                0x00000000800eaf10                D_800EAF10 = 0x800eaf10
                0x00000000800eaf14                D_800EAF14 = 0x800eaf14
                0x00000000800eaf18                D_800EAF18 = 0x800eaf18
                0x00000000800eaf1c                D_800EAF1C = 0x800eaf1c
                0x00000000800eaf20                D_800EAF20 = 0x800eaf20
                0x00000000800eaf24                D_800EAF24 = 0x800eaf24
                0x00000000800eaf28                D_800EAF28 = 0x800eaf28
                0x00000000800eaf2c                jtbl_800EAF2C = 0x800eaf2c
                0x00000000800eafa8                jtbl_800EAFA8 = 0x800eafa8
                0x00000000800eafc0                jtbl_800EAFC0 = 0x800eafc0
                0x00000000800eafe0                D_800EAFE0 = 0x800eafe0
                0x00000000800eafe4                D_800EAFE4 = 0x800eafe4
                0x00000000800eafe8                D_800EAFE8 = 0x800eafe8
                0x00000000800eafec                D_800EAFEC = 0x800eafec
                0x00000000800eaff0                D_800EAFF0 = 0x800eaff0
                0x00000000800eaff4                D_800EAFF4 = 0x800eaff4
                0x00000000800eaff8                D_800EAFF8 = 0x800eaff8
                0x00000000800eaffc                D_800EAFFC = 0x800eaffc
                0x00000000800eb000                jtbl_800EB000 = 0x800eb000
                0x00000000800eb020                D_800EB020 = 0x800eb020
                0x00000000800eb024                D_800EB024 = 0x800eb024
                0x00000000800eb028                D_800EB028 = 0x800eb028
                0x00000000800eb02c                D_800EB02C = 0x800eb02c
                0x00000000800eb030                D_800EB030 = 0x800eb030
                0x00000000800eb038                D_800EB038 = 0x800eb038
                0x00000000800eb03c                D_800EB03C = 0x800eb03c
                0x00000000800eb040                D_800EB040 = 0x800eb040
                0x00000000800eb044                D_800EB044 = 0x800eb044
                0x00000000800eb050                jtbl_800EB050 = 0x800eb050
                0x00000000800eb258                D_800EB258 = 0x800eb258
                0x00000000800eb260                D_800EB260 = 0x800eb260
                0x00000000800eb268                D_800EB268 = 0x800eb268
                0x00000000800eb270                D_800EB270 = 0x800eb270
                0x00000000800eb278                D_800EB278 = 0x800eb278
                0x00000000800eb280                D_800EB280 = 0x800eb280
                0x00000000800eb288                D_800EB288 = 0x800eb288
                0x00000000800eb290                D_800EB290 = 0x800eb290
                0x00000000800eb298                D_800EB298 = 0x800eb298
                0x00000000800eb2a0                jtbl_800EB2A0 = 0x800eb2a0
                0x00000000800eb2e4                jtbl_800EB2E4 = 0x800eb2e4
                0x00000000800eb3ac                jtbl_800EB3AC = 0x800eb3ac
                0x00000000800eb3f4                jtbl_800EB3F4 = 0x800eb3f4
                0x00000000800eb500                jtbl_800EB500 = 0x800eb500
                0x00000000800eb590                jtbl_800EB590 = 0x800eb590
                0x00000000800eb620                D_800EB620 = 0x800eb620
                0x00000000800eb624                D_800EB624 = 0x800eb624
                0x00000000800eb628                D_800EB628 = 0x800eb628
                0x00000000800eb62c                D_800EB62C = 0x800eb62c
                0x00000000800eb630                D_800EB630 = 0x800eb630
                0x00000000800eb634                D_800EB634 = 0x800eb634
                0x00000000800eb638                D_800EB638 = 0x800eb638
                0x00000000800eb63c                D_800EB63C = 0x800eb63c
                0x00000000800eb640                D_800EB640 = 0x800eb640
                0x00000000800eb644                D_800EB644 = 0x800eb644
                0x00000000800eb648                D_800EB648 = 0x800eb648
                0x00000000800eb64c                D_800EB64C = 0x800eb64c
                0x00000000800eb650                jtbl_800EB650 = 0x800eb650
                0x00000000800eb680                D_800EB680 = 0x800eb680
                0x00000000800eb684                D_800EB684 = 0x800eb684
                0x00000000800eb688                D_800EB688 = 0x800eb688
                0x00000000800eb68c                D_800EB68C = 0x800eb68c
                0x00000000800eb690                jtbl_800EB690 = 0x800eb690
                0x00000000800eb794                jtbl_800EB794 = 0x800eb794
                0x00000000800eb820                jtbl_800EB820 = 0x800eb820
                0x00000000800eb85c                D_800EB85C = 0x800eb85c
                0x00000000800eb860                D_800EB860 = 0x800eb860
                0x00000000800eb864                D_800EB864 = 0x800eb864
                0x00000000800eb868                D_800EB868 = 0x800eb868
                0x00000000800eb870                D_800EB870 = 0x800eb870
                0x00000000800eb874                D_800EB874 = 0x800eb874
                0x00000000800eb878                D_800EB878 = 0x800eb878
                0x00000000800eb87c                D_800EB87C = 0x800eb87c
                0x00000000800eb880                D_800EB880 = 0x800eb880
                0x00000000800eb884                D_800EB884 = 0x800eb884
                0x00000000800eb888                D_800EB888 = 0x800eb888
                0x00000000800eb88c                D_800EB88C = 0x800eb88c
                0x00000000800eb890                D_800EB890 = 0x800eb890
                0x00000000800eb894                D_800EB894 = 0x800eb894
                0x00000000800eb898                D_800EB898 = 0x800eb898
                0x00000000800eb89c                D_800EB89C = 0x800eb89c
                0x00000000800eb8a0                D_800EB8A0 = 0x800eb8a0
                0x00000000800eb8a4                D_800EB8A4 = 0x800eb8a4
                0x00000000800eb8a8                D_800EB8A8 = 0x800eb8a8
                0x00000000800eb8ac                D_800EB8AC = 0x800eb8ac
                0x00000000800eb8b0                D_800EB8B0 = 0x800eb8b0
                0x00000000800eb8b4                D_800EB8B4 = 0x800eb8b4
                0x00000000800eb8b8                D_800EB8B8 = 0x800eb8b8
                0x00000000800eb8c0                D_800EB8C0 = 0x800eb8c0
                0x00000000800eb8c4                D_800EB8C4 = 0x800eb8c4
                0x00000000800eb8c8                D_800EB8C8 = 0x800eb8c8
                0x00000000800eb8d0                D_800EB8D0 = 0x800eb8d0
                0x00000000800eb8d4                D_800EB8D4 = 0x800eb8d4
                0x00000000800eb8d8                D_800EB8D8 = 0x800eb8d8
                0x00000000800eb8dc                D_800EB8DC = 0x800eb8dc
                0x00000000800eb8e0                D_800EB8E0 = 0x800eb8e0
                0x00000000800eb8e4                D_800EB8E4 = 0x800eb8e4
                0x00000000800eb8e8                D_800EB8E8 = 0x800eb8e8
                0x00000000800eb8ec                D_800EB8EC = 0x800eb8ec
                0x00000000800eb8f0                D_800EB8F0 = 0x800eb8f0
                0x00000000800eb8f8                D_800EB8F8 = 0x800eb8f8
                0x00000000800eb8fc                D_800EB8FC = 0x800eb8fc
                0x00000000800eb900                D_800EB900 = 0x800eb900
                0x00000000800eb904                D_800EB904 = 0x800eb904
                0x00000000800eb908                D_800EB908 = 0x800eb908
                0x00000000800eb90c                D_800EB90C = 0x800eb90c
                0x00000000800eb910                D_800EB910 = 0x800eb910
                0x00000000800eb914                D_800EB914 = 0x800eb914
                0x00000000800eb918                D_800EB918 = 0x800eb918
                0x00000000800eb91c                D_800EB91C = 0x800eb91c
                0x00000000800eb920                D_800EB920 = 0x800eb920
                0x00000000800eb924                D_800EB924 = 0x800eb924
                0x00000000800eb928                D_800EB928 = 0x800eb928
                0x00000000800eb930                D_800EB930 = 0x800eb930
                0x00000000800eb934                D_800EB934 = 0x800eb934
                0x00000000800eb938                D_800EB938 = 0x800eb938
                0x00000000800eb93c                D_800EB93C = 0x800eb93c
                0x00000000800eb940                D_800EB940 = 0x800eb940
                0x00000000800eb944                D_800EB944 = 0x800eb944
                0x00000000800eb948                D_800EB948 = 0x800eb948
                0x00000000800eb94c                D_800EB94C = 0x800eb94c
                0x00000000800eb950                D_800EB950 = 0x800eb950
                0x00000000800eb954                D_800EB954 = 0x800eb954
                0x00000000800eb958                D_800EB958 = 0x800eb958
                0x00000000800eb95c                D_800EB95C = 0x800eb95c
                0x00000000800eb960                D_800EB960 = 0x800eb960
                0x00000000800eb964                D_800EB964 = 0x800eb964
                0x00000000800eb968                D_800EB968 = 0x800eb968
                0x00000000800eb96c                D_800EB96C = 0x800eb96c
                0x00000000800eb970                D_800EB970 = 0x800eb970
                0x00000000800eb974                D_800EB974 = 0x800eb974
                0x00000000800eb978                D_800EB978 = 0x800eb978
                0x00000000800eb97c                D_800EB97C = 0x800eb97c
                0x00000000800eb980                D_800EB980 = 0x800eb980
                0x00000000800eb984                D_800EB984 = 0x800eb984
                0x00000000800eb988                D_800EB988 = 0x800eb988
                0x00000000800eb98c                D_800EB98C = 0x800eb98c
                0x00000000800eb990                D_800EB990 = 0x800eb990
                0x00000000800eb994                D_800EB994 = 0x800eb994
                0x00000000800eb998                D_800EB998 = 0x800eb998
                0x00000000800eb99c                D_800EB99C = 0x800eb99c
                0x00000000800eb9a0                D_800EB9A0 = 0x800eb9a0
                0x00000000800eb9a4                D_800EB9A4 = 0x800eb9a4
                0x00000000800eb9a8                D_800EB9A8 = 0x800eb9a8
                0x00000000800eb9ac                D_800EB9AC = 0x800eb9ac
                0x00000000800eb9b0                D_800EB9B0 = 0x800eb9b0
                0x00000000800eb9b4                D_800EB9B4 = 0x800eb9b4
                0x00000000800eb9b8                D_800EB9B8 = 0x800eb9b8
                0x00000000800eb9bc                D_800EB9BC = 0x800eb9bc
                0x00000000800eb9c0                jtbl_800EB9C0 = 0x800eb9c0
                0x00000000800eb9dc                D_800EB9DC = 0x800eb9dc
                0x00000000800eb9e0                D_800EB9E0 = 0x800eb9e0
                0x00000000800eb9e4                D_800EB9E4 = 0x800eb9e4
                0x00000000800eb9e8                jtbl_800EB9E8 = 0x800eb9e8
                0x00000000800ebaac                jtbl_800EBAAC = 0x800ebaac
                0x00000000800ebac0                D_800EBAC0 = 0x800ebac0
                0x00000000800ebac8                D_800EBAC8 = 0x800ebac8
                0x00000000800ebacc                D_800EBACC = 0x800ebacc
                0x00000000800ebad0                D_800EBAD0 = 0x800ebad0
                0x00000000800ebad4                D_800EBAD4 = 0x800ebad4
                0x00000000800ebad8                D_800EBAD8 = 0x800ebad8
                0x00000000800ebadc                D_800EBADC = 0x800ebadc
                0x00000000800ebae0                D_800EBAE0 = 0x800ebae0
                0x00000000800ebae4                D_800EBAE4 = 0x800ebae4
                0x00000000800ebae8                D_800EBAE8 = 0x800ebae8
                0x00000000800ebaec                D_800EBAEC = 0x800ebaec
                0x00000000800ebaf0                D_800EBAF0 = 0x800ebaf0
                0x00000000800ebaf4                D_800EBAF4 = 0x800ebaf4
                0x00000000800ebaf8                D_800EBAF8 = 0x800ebaf8
                0x00000000800ebafc                D_800EBAFC = 0x800ebafc
                0x00000000800ebb00                D_800EBB00 = 0x800ebb00
                0x00000000800ebb04                D_800EBB04 = 0x800ebb04
                0x00000000800ebb08                D_800EBB08 = 0x800ebb08
                0x00000000800ebb0c                D_800EBB0C = 0x800ebb0c
                0x00000000800ebb10                D_800EBB10 = 0x800ebb10
                0x00000000800ebb18                D_800EBB18 = 0x800ebb18
                0x00000000800ebb1c                D_800EBB1C = 0x800ebb1c
                0x00000000800ebb20                D_800EBB20 = 0x800ebb20
                0x00000000800ebb24                D_800EBB24 = 0x800ebb24
                0x00000000800ebb28                jtbl_800EBB28 = 0x800ebb28
                0x00000000800ebb3c                D_800EBB3C = 0x800ebb3c
                0x00000000800ebb40                D_800EBB40 = 0x800ebb40
                0x00000000800ebb44                D_800EBB44 = 0x800ebb44
                0x00000000800ebb48                D_800EBB48 = 0x800ebb48
                0x00000000800ebb4c                D_800EBB4C = 0x800ebb4c
                0x00000000800ebb50                D_800EBB50 = 0x800ebb50
                0x00000000800ebb54                D_800EBB54 = 0x800ebb54
                0x00000000800ebb58                D_800EBB58 = 0x800ebb58
                0x00000000800ebb5c                D_800EBB5C = 0x800ebb5c
                0x00000000800ebb60                D_800EBB60 = 0x800ebb60
                0x00000000800ebb64                D_800EBB64 = 0x800ebb64
                0x00000000800ebb68                D_800EBB68 = 0x800ebb68
                0x00000000800ebb6c                D_800EBB6C = 0x800ebb6c
                0x00000000800ebb70                D_800EBB70 = 0x800ebb70
                0x00000000800ebb74                D_800EBB74 = 0x800ebb74
                0x00000000800ebb78                D_800EBB78 = 0x800ebb78
                0x00000000800ebb7c                D_800EBB7C = 0x800ebb7c
                0x00000000800ebb80                D_800EBB80 = 0x800ebb80
                0x00000000800ebb84                D_800EBB84 = 0x800ebb84
                0x00000000800ebb88                D_800EBB88 = 0x800ebb88
                0x00000000800ebb8c                D_800EBB8C = 0x800ebb8c
                0x00000000800ebb90                D_800EBB90 = 0x800ebb90
                0x00000000800ebb94                D_800EBB94 = 0x800ebb94
                0x00000000800ebb98                D_800EBB98 = 0x800ebb98
                0x00000000800ebb9c                D_800EBB9C = 0x800ebb9c
                0x00000000800ebba0                D_800EBBA0 = 0x800ebba0
                0x00000000800ebba4                D_800EBBA4 = 0x800ebba4
                0x00000000800ebba8                D_800EBBA8 = 0x800ebba8
                0x00000000800ebbac                D_800EBBAC = 0x800ebbac
                0x00000000800ebbb0                D_800EBBB0 = 0x800ebbb0
                0x00000000800ebbb4                D_800EBBB4 = 0x800ebbb4
                0x00000000800ebbb8                D_800EBBB8 = 0x800ebbb8
                0x00000000800ebbbc                D_800EBBBC = 0x800ebbbc
                0x00000000800ebbc0                D_800EBBC0 = 0x800ebbc0
                0x00000000800ebbc4                D_800EBBC4 = 0x800ebbc4
                0x00000000800ebbc8                jtbl_800EBBC8 = 0x800ebbc8
                0x00000000800ebbdc                D_800EBBDC = 0x800ebbdc
                0x00000000800ebbe0                D_800EBBE0 = 0x800ebbe0
                0x00000000800ebbe4                D_800EBBE4 = 0x800ebbe4
                0x00000000800ebbe8                D_800EBBE8 = 0x800ebbe8
                0x00000000800ebbec                D_800EBBEC = 0x800ebbec
                0x00000000800ebbf0                D_800EBBF0 = 0x800ebbf0
                0x00000000800ebbf4                D_800EBBF4 = 0x800ebbf4
                0x00000000800ebbf8                D_800EBBF8 = 0x800ebbf8
                0x00000000800ebbfc                D_800EBBFC = 0x800ebbfc
                0x00000000800ebc00                D_800EBC00 = 0x800ebc00
                0x00000000800ebc04                D_800EBC04 = 0x800ebc04
                0x00000000800ebc08                D_800EBC08 = 0x800ebc08
                0x00000000800ebc10                D_800EBC10 = 0x800ebc10
                0x00000000800ebc14                D_800EBC14 = 0x800ebc14
                0x00000000800ebc18                D_800EBC18 = 0x800ebc18
                0x00000000800ebc1c                D_800EBC1C = 0x800ebc1c
                0x00000000800ebc20                D_800EBC20 = 0x800ebc20
                0x00000000800ebc24                D_800EBC24 = 0x800ebc24
                0x00000000800ebc28                D_800EBC28 = 0x800ebc28
                0x00000000800ebc2c                D_800EBC2C = 0x800ebc2c
                0x00000000800ebc30                D_800EBC30 = 0x800ebc30
                0x00000000800ebc34                D_800EBC34 = 0x800ebc34
                0x00000000800ebc38                D_800EBC38 = 0x800ebc38
                0x00000000800ebc3c                D_800EBC3C = 0x800ebc3c
                0x00000000800ebc40                D_800EBC40 = 0x800ebc40
                0x00000000800ebc48                D_800EBC48 = 0x800ebc48
                0x00000000800ebc4c                D_800EBC4C = 0x800ebc4c
                0x00000000800ebc50                D_800EBC50 = 0x800ebc50
                0x00000000800ebc54                D_800EBC54 = 0x800ebc54
                0x00000000800ebc58                D_800EBC58 = 0x800ebc58
                0x00000000800ebc5c                D_800EBC5C = 0x800ebc5c
                0x00000000800ebc60                D_800EBC60 = 0x800ebc60
                0x00000000800ebc64                D_800EBC64 = 0x800ebc64
                0x00000000800ebc68                D_800EBC68 = 0x800ebc68
                0x00000000800ebc6c                D_800EBC6C = 0x800ebc6c
                0x00000000800ebc70                D_800EBC70 = 0x800ebc70
                0x00000000800ebc74                D_800EBC74 = 0x800ebc74
                0x00000000800ebc78                D_800EBC78 = 0x800ebc78
                0x00000000800ebc7c                D_800EBC7C = 0x800ebc7c
                0x00000000800ebc80                D_800EBC80 = 0x800ebc80
                0x00000000800ebc84                D_800EBC84 = 0x800ebc84
                0x00000000800ebc88                D_800EBC88 = 0x800ebc88
                0x00000000800ebc8c                D_800EBC8C = 0x800ebc8c
                0x00000000800ebc90                D_800EBC90 = 0x800ebc90
                0x00000000800ebc94                D_800EBC94 = 0x800ebc94
                0x00000000800ebc98                D_800EBC98 = 0x800ebc98
                0x00000000800ebc9c                D_800EBC9C = 0x800ebc9c
                0x00000000800ebca0                D_800EBCA0 = 0x800ebca0
                0x00000000800ebca4                D_800EBCA4 = 0x800ebca4
                0x00000000800ebca8                D_800EBCA8 = 0x800ebca8
                0x00000000800ebcac                D_800EBCAC = 0x800ebcac
                0x00000000800ebcb0                D_800EBCB0 = 0x800ebcb0
                0x00000000800ebcb4                D_800EBCB4 = 0x800ebcb4
                0x00000000800ebcb8                D_800EBCB8 = 0x800ebcb8
                0x00000000800ebcbc                D_800EBCBC = 0x800ebcbc
                0x00000000800ebcc0                D_800EBCC0 = 0x800ebcc0
                0x00000000800ebcc8                D_800EBCC8 = 0x800ebcc8
                0x00000000800ebccc                D_800EBCCC = 0x800ebccc
                0x00000000800ebcd0                D_800EBCD0 = 0x800ebcd0
                0x00000000800ebcd4                D_800EBCD4 = 0x800ebcd4
                0x00000000800ebcd8                jtbl_800EBCD8 = 0x800ebcd8
                0x00000000800ebd08                D_800EBD08 = 0x800ebd08
                0x00000000800ebd10                D_800EBD10 = 0x800ebd10
                0x00000000800ebd14                D_800EBD14 = 0x800ebd14
                0x00000000800ebd18                D_800EBD18 = 0x800ebd18
                0x00000000800ebd1c                D_800EBD1C = 0x800ebd1c
                0x00000000800ebd20                jtbl_800EBD20 = 0x800ebd20
                0x00000000800ebd40                jtbl_800EBD40 = 0x800ebd40
                0x00000000800ebd58                D_800EBD58 = 0x800ebd58
                0x00000000800ebd60                D_800EBD60 = 0x800ebd60
                0x00000000800ebd64                D_800EBD64 = 0x800ebd64
                0x00000000800ebd68                D_800EBD68 = 0x800ebd68
                0x00000000800ebd6c                D_800EBD6C = 0x800ebd6c
                0x00000000800ebd70                D_800EBD70 = 0x800ebd70
                0x00000000800ebd74                D_800EBD74 = 0x800ebd74
                0x00000000800ebd78                D_800EBD78 = 0x800ebd78
                0x00000000800ebd7c                D_800EBD7C = 0x800ebd7c
                0x00000000800ebd80                D_800EBD80 = 0x800ebd80
                0x00000000800ebd84                D_800EBD84 = 0x800ebd84
                0x00000000800ebd88                D_800EBD88 = 0x800ebd88
                0x00000000800ebd8c                D_800EBD8C = 0x800ebd8c
                0x00000000800ebd90                D_800EBD90 = 0x800ebd90
                0x00000000800ebd94                D_800EBD94 = 0x800ebd94
                0x00000000800ebd98                D_800EBD98 = 0x800ebd98
                0x00000000800ebd9c                D_800EBD9C = 0x800ebd9c
                0x00000000800ebda0                D_800EBDA0 = 0x800ebda0
                0x00000000800ebda4                D_800EBDA4 = 0x800ebda4
                0x00000000800ebda8                D_800EBDA8 = 0x800ebda8
                0x00000000800ebdb0                D_800EBDB0 = 0x800ebdb0
                0x00000000800ebdb4                D_800EBDB4 = 0x800ebdb4
                0x00000000800ebdb8                D_800EBDB8 = 0x800ebdb8
                0x00000000800ebdbc                D_800EBDBC = 0x800ebdbc
                0x00000000800ebdc0                D_800EBDC0 = 0x800ebdc0
                0x00000000800ebdc4                D_800EBDC4 = 0x800ebdc4
                0x00000000800ebdc8                D_800EBDC8 = 0x800ebdc8
                0x00000000800ebdcc                D_800EBDCC = 0x800ebdcc
                0x00000000800ebdd0                D_800EBDD0 = 0x800ebdd0
                0x00000000800ebdd4                D_800EBDD4 = 0x800ebdd4
                0x00000000800ebdd8                D_800EBDD8 = 0x800ebdd8
                0x00000000800ebddc                D_800EBDDC = 0x800ebddc
                0x00000000800ebde0                D_800EBDE0 = 0x800ebde0
                0x00000000800ebde4                D_800EBDE4 = 0x800ebde4
                0x00000000800ebde8                jtbl_800EBDE8 = 0x800ebde8
                0x00000000800ebe0c                jtbl_800EBE0C = 0x800ebe0c
                0x00000000800ebe30                jtbl_800EBE30 = 0x800ebe30
                0x00000000800ebe54                jtbl_800EBE54 = 0x800ebe54
                0x00000000800ebe78                jtbl_800EBE78 = 0x800ebe78
                0x00000000800ebea0                jtbl_800EBEA0 = 0x800ebea0
                0x00000000800ebebc                D_800EBEBC = 0x800ebebc
                0x00000000800ebec0                D_800EBEC0 = 0x800ebec0
                0x00000000800ebec4                D_800EBEC4 = 0x800ebec4
                0x00000000800ebec8                D_800EBEC8 = 0x800ebec8
                0x00000000800ebed0                D_800EBED0 = 0x800ebed0
                0x00000000800ebed4                D_800EBED4 = 0x800ebed4
                0x00000000800ebed8                D_800EBED8 = 0x800ebed8
                0x00000000800ebee0                D_800EBEE0 = 0x800ebee0
                0x00000000800ebee4                D_800EBEE4 = 0x800ebee4
                0x00000000800ebee8                D_800EBEE8 = 0x800ebee8
                0x00000000800ebeec                D_800EBEEC = 0x800ebeec
                0x00000000800ebef0                D_800EBEF0 = 0x800ebef0
                0x00000000800ebef4                D_800EBEF4 = 0x800ebef4
                0x00000000800ebef8                D_800EBEF8 = 0x800ebef8
                0x00000000800ebefc                D_800EBEFC = 0x800ebefc
                0x00000000800ebf00                D_800EBF00 = 0x800ebf00
                0x00000000800ebf04                D_800EBF04 = 0x800ebf04
                0x00000000800ebf08                D_800EBF08 = 0x800ebf08
                0x00000000800ebf0c                D_800EBF0C = 0x800ebf0c
                0x00000000800ebf10                D_800EBF10 = 0x800ebf10
                0x00000000800ebf14                D_800EBF14 = 0x800ebf14
                0x00000000800ebf18                D_800EBF18 = 0x800ebf18
                0x00000000800ebf1c                D_800EBF1C = 0x800ebf1c
                0x00000000800ebf20                D_800EBF20 = 0x800ebf20
                0x00000000800ebf24                D_800EBF24 = 0x800ebf24
                0x00000000800ebf28                D_800EBF28 = 0x800ebf28
                0x00000000800ebf2c                D_800EBF2C = 0x800ebf2c
                0x00000000800ebf30                D_800EBF30 = 0x800ebf30
                0x00000000800ebf34                D_800EBF34 = 0x800ebf34
                0x00000000800ebf38                D_800EBF38 = 0x800ebf38
                0x00000000800ebf3c                D_800EBF3C = 0x800ebf3c
                0x00000000800ebf40                D_800EBF40 = 0x800ebf40
                0x00000000800ebf48                D_800EBF48 = 0x800ebf48
                0x00000000800ebf4c                D_800EBF4C = 0x800ebf4c
                0x00000000800ebf50                D_800EBF50 = 0x800ebf50
                0x00000000800ebf54                D_800EBF54 = 0x800ebf54
                0x00000000800ebf58                D_800EBF58 = 0x800ebf58
                0x00000000800ebf5c                D_800EBF5C = 0x800ebf5c
                0x00000000800ebf60                D_800EBF60 = 0x800ebf60
                0x00000000800ebf64                D_800EBF64 = 0x800ebf64
                0x00000000800ebf68                D_800EBF68 = 0x800ebf68
                0x00000000800ebf6c                D_800EBF6C = 0x800ebf6c
                0x00000000800ebf70                jtbl_800EBF70 = 0x800ebf70
                0x00000000800ebf90                D_800EBF90 = 0x800ebf90
                0x00000000800ebf94                D_800EBF94 = 0x800ebf94
                0x00000000800ebf98                D_800EBF98 = 0x800ebf98
                0x00000000800ebf9c                D_800EBF9C = 0x800ebf9c
                0x00000000800ebfa0                D_800EBFA0 = 0x800ebfa0
                0x00000000800ebfa4                D_800EBFA4 = 0x800ebfa4
                0x00000000800ebfa8                D_800EBFA8 = 0x800ebfa8
                0x00000000800ebfac                D_800EBFAC = 0x800ebfac
                0x00000000800ebfb0                jtbl_800EBFB0 = 0x800ebfb0
                0x00000000800ebfcc                D_800EBFCC = 0x800ebfcc
                0x00000000800ebfd0                jtbl_800EBFD0 = 0x800ebfd0
                0x00000000800ebff4                jtbl_800EBFF4 = 0x800ebff4
                0x00000000800ec0f0                D_800EC0F0 = 0x800ec0f0
                0x00000000800ec0f4                D_800EC0F4 = 0x800ec0f4
                0x00000000800ec0f8                D_800EC0F8 = 0x800ec0f8
                0x00000000800ec0fc                D_800EC0FC = 0x800ec0fc
                0x00000000800ec100                D_800EC100 = 0x800ec100
                0x00000000800ec104                D_800EC104 = 0x800ec104
                0x00000000800ec108                D_800EC108 = 0x800ec108
                0x00000000800ec10c                D_800EC10C = 0x800ec10c
                0x00000000800ec110                D_800EC110 = 0x800ec110
                0x00000000800ec114                D_800EC114 = 0x800ec114
                0x00000000800ec118                D_800EC118 = 0x800ec118
                0x00000000800ec11c                D_800EC11C = 0x800ec11c
                0x00000000800ec120                D_800EC120 = 0x800ec120
                0x00000000800ec124                D_800EC124 = 0x800ec124
                0x00000000800ec128                D_800EC128 = 0x800ec128
                0x00000000800ec12c                D_800EC12C = 0x800ec12c
                0x00000000800ec130                D_800EC130 = 0x800ec130
                0x00000000800ec134                D_800EC134 = 0x800ec134
                0x00000000800ec138                D_800EC138 = 0x800ec138
                0x00000000800ec13c                D_800EC13C = 0x800ec13c
                0x00000000800ec140                D_800EC140 = 0x800ec140
                0x00000000800ec148                D_800EC148 = 0x800ec148
                0x00000000800ec14c                D_800EC14C = 0x800ec14c
                0x00000000800ec150                D_800EC150 = 0x800ec150
                0x00000000800ec154                D_800EC154 = 0x800ec154
                0x00000000800ec158                D_800EC158 = 0x800ec158
                0x00000000800ec15c                D_800EC15C = 0x800ec15c
                0x00000000800ec160                D_800EC160 = 0x800ec160
                0x00000000800ec164                D_800EC164 = 0x800ec164
                0x00000000800ec168                D_800EC168 = 0x800ec168
                0x00000000800ec16c                D_800EC16C = 0x800ec16c
                0x00000000800ec170                D_800EC170 = 0x800ec170
                0x00000000800ec174                D_800EC174 = 0x800ec174
                0x00000000800ec180                D_800EC180 = 0x800ec180
                0x00000000800ec184                jtbl_800EC184 = 0x800ec184
                0x00000000800ec350                jtbl_800EC350 = 0x800ec350
                0x00000000800ec374                jtbl_800EC374 = 0x800ec374
                0x00000000800ec394                jtbl_800EC394 = 0x800ec394
                0x00000000800ec414                jtbl_800EC414 = 0x800ec414
                0x00000000800ec4a8                D_800EC4A8 = 0x800ec4a8
                0x00000000800ec4ac                D_800EC4AC = 0x800ec4ac
                0x00000000800ec4b0                D_800EC4B0 = 0x800ec4b0
                0x00000000800ec4b4                D_800EC4B4 = 0x800ec4b4
                0x00000000800ec4b8                D_800EC4B8 = 0x800ec4b8
                0x00000000800ec4bc                D_800EC4BC = 0x800ec4bc
                0x00000000800ec4c0                D_800EC4C0 = 0x800ec4c0
                0x00000000800ec4c4                D_800EC4C4 = 0x800ec4c4
                0x00000000800ec4c8                jtbl_800EC4C8 = 0x800ec4c8
                0x00000000800ec4e0                D_800EC4E0 = 0x800ec4e0
                0x00000000800ec4e4                D_800EC4E4 = 0x800ec4e4
                0x00000000800ec4e8                D_800EC4E8 = 0x800ec4e8
                0x00000000800ec4ec                D_800EC4EC = 0x800ec4ec
                0x00000000800ec4f0                D_800EC4F0 = 0x800ec4f0
                0x00000000800ec4f4                D_800EC4F4 = 0x800ec4f4
                0x00000000800ec4f8                D_800EC4F8 = 0x800ec4f8
                0x00000000800ec4fc                D_800EC4FC = 0x800ec4fc
                0x00000000800ec500                D_800EC500 = 0x800ec500
                0x00000000800ec504                D_800EC504 = 0x800ec504
                0x00000000800ec508                D_800EC508 = 0x800ec508
                0x00000000800ec50c                D_800EC50C = 0x800ec50c
                0x00000000800ec510                D_800EC510 = 0x800ec510
                0x00000000800ec518                D_800EC518 = 0x800ec518
                0x00000000800ec51c                D_800EC51C = 0x800ec51c
                0x00000000800ec520                D_800EC520 = 0x800ec520
                0x00000000800ec524                D_800EC524 = 0x800ec524
                0x00000000800ec528                D_800EC528 = 0x800ec528
                0x00000000800ec530                D_800EC530 = 0x800ec530
                0x00000000800ec534                D_800EC534 = 0x800ec534
                0x00000000800ec538                D_800EC538 = 0x800ec538
                0x00000000800ec53c                D_800EC53C = 0x800ec53c
                0x00000000800ec540                jtbl_800EC540 = 0x800ec540
                0x00000000800ec598                D_800EC598 = 0x800ec598
                0x00000000800ec59c                jtbl_800EC59C = 0x800ec59c
                0x00000000800ec5b8                D_800EC5B8 = 0x800ec5b8
                0x00000000800ec5bc                D_800EC5BC = 0x800ec5bc
                0x00000000800ec5c0                D_800EC5C0 = 0x800ec5c0
                0x00000000800ec5c4                D_800EC5C4 = 0x800ec5c4
                0x00000000800ec5c8                D_800EC5C8 = 0x800ec5c8
                0x00000000800ec5cc                D_800EC5CC = 0x800ec5cc
                0x00000000800ec5d0                D_800EC5D0 = 0x800ec5d0
                0x00000000800ec5d4                D_800EC5D4 = 0x800ec5d4
                0x00000000800ec5d8                D_800EC5D8 = 0x800ec5d8
                0x00000000800ec5dc                D_800EC5DC = 0x800ec5dc
                0x00000000800ec5e0                D_800EC5E0 = 0x800ec5e0
                0x00000000800ec5e4                D_800EC5E4 = 0x800ec5e4
                0x00000000800ec5e8                D_800EC5E8 = 0x800ec5e8
                0x00000000800ec5ec                D_800EC5EC = 0x800ec5ec
                0x00000000800ec5f0                D_800EC5F0 = 0x800ec5f0
                0x00000000800ec5f4                D_800EC5F4 = 0x800ec5f4
                0x00000000800ec5f8                D_800EC5F8 = 0x800ec5f8
                0x00000000800ec5fc                D_800EC5FC = 0x800ec5fc
                0x00000000800ec600                D_800EC600 = 0x800ec600
                0x00000000800ec604                D_800EC604 = 0x800ec604
                0x00000000800ec608                D_800EC608 = 0x800ec608
                0x00000000800ec60c                D_800EC60C = 0x800ec60c
                0x00000000800ec610                jtbl_800EC610 = 0x800ec610
                0x00000000800ec714                jtbl_800EC714 = 0x800ec714
                0x00000000800ec72c                jtbl_800EC72C = 0x800ec72c
                0x00000000800ec744                jtbl_800EC744 = 0x800ec744
                0x00000000800ec7d0                jtbl_800EC7D0 = 0x800ec7d0
                0x00000000800ec854                D_800EC854 = 0x800ec854
                0x00000000800ec860                D_800EC860 = 0x800ec860
                0x00000000800ec864                D_800EC864 = 0x800ec864
                0x00000000800ec868                D_800EC868 = 0x800ec868
                0x00000000800ec86c                D_800EC86C = 0x800ec86c
                0x00000000800ec870                D_800EC870 = 0x800ec870
                0x00000000800ec874                D_800EC874 = 0x800ec874
                0x00000000800ec878                D_800EC878 = 0x800ec878
                0x00000000800ec87c                D_800EC87C = 0x800ec87c
                0x00000000800ec880                D_800EC880 = 0x800ec880
                0x00000000800ec884                D_800EC884 = 0x800ec884
                0x00000000800ec888                D_800EC888 = 0x800ec888
                0x00000000800ec88c                D_800EC88C = 0x800ec88c
                0x00000000800ec890                D_800EC890 = 0x800ec890
                0x00000000800ec894                jtbl_800EC894 = 0x800ec894
                0x00000000800ec95c                D_800EC95C = 0x800ec95c
                0x00000000800ec960                D_800EC960 = 0x800ec960
                0x00000000800ec964                D_800EC964 = 0x800ec964
                0x00000000800ec968                D_800EC968 = 0x800ec968
                0x00000000800ec96c                D_800EC96C = 0x800ec96c
                0x00000000800ec970                D_800EC970 = 0x800ec970
                0x00000000800ec974                D_800EC974 = 0x800ec974
                0x00000000800ec978                D_800EC978 = 0x800ec978
                0x00000000800ec97c                D_800EC97C = 0x800ec97c
                0x00000000800ec980                D_800EC980 = 0x800ec980
                0x00000000800ec984                D_800EC984 = 0x800ec984
                0x00000000800ec988                D_800EC988 = 0x800ec988
                0x00000000800ec98c                D_800EC98C = 0x800ec98c
                0x00000000800ec990                D_800EC990 = 0x800ec990
                0x00000000800ec994                D_800EC994 = 0x800ec994
                0x00000000800ec998                jtbl_800EC998 = 0x800ec998
                0x00000000800eca1c                D_800ECA1C = 0x800eca1c
                0x00000000800eca20                D_800ECA20 = 0x800eca20
                0x00000000800eca24                D_800ECA24 = 0x800eca24
                0x00000000800eca28                D_800ECA28 = 0x800eca28
                0x00000000800eca2c                D_800ECA2C = 0x800eca2c
                0x00000000800eca30                D_800ECA30 = 0x800eca30
                0x00000000800eca34                D_800ECA34 = 0x800eca34
                0x00000000800eca38                D_800ECA38 = 0x800eca38
                0x00000000800eca40                D_800ECA40 = 0x800eca40
                0x00000000800eca44                D_800ECA44 = 0x800eca44
                0x00000000800eca48                D_800ECA48 = 0x800eca48
                0x00000000800eca4c                D_800ECA4C = 0x800eca4c
                0x00000000800eca50                D_800ECA50 = 0x800eca50
                0x00000000800eca54                D_800ECA54 = 0x800eca54
                0x00000000800eca58                jtbl_800ECA58 = 0x800eca58
                0x00000000800ecab0                jtbl_800ECAB0 = 0x800ecab0
                0x00000000800eccf8                D_800ECCF8 = 0x800eccf8
                0x00000000800eccfc                D_800ECCFC = 0x800eccfc
                0x00000000800ecd00                D_800ECD00 = 0x800ecd00
                0x00000000800ecd04                D_800ECD04 = 0x800ecd04
                0x00000000800ecd08                D_800ECD08 = 0x800ecd08
                0x00000000800ecd0c                D_800ECD0C = 0x800ecd0c
                0x00000000800ecd10                D_800ECD10 = 0x800ecd10
                0x00000000800ecd14                D_800ECD14 = 0x800ecd14
                0x00000000800ecd18                D_800ECD18 = 0x800ecd18
                0x00000000800ecd1c                D_800ECD1C = 0x800ecd1c
                0x00000000800ecd20                D_800ECD20 = 0x800ecd20
                0x00000000800ecd24                D_800ECD24 = 0x800ecd24
                0x00000000800ecd28                D_800ECD28 = 0x800ecd28
                0x00000000800ecd2c                D_800ECD2C = 0x800ecd2c
                0x00000000800ecd30                D_800ECD30 = 0x800ecd30
                0x00000000800ecd34                D_800ECD34 = 0x800ecd34
                0x00000000800ecd38                jtbl_800ECD38 = 0x800ecd38
                0x00000000800ecd90                D_800ECD90 = 0x800ecd90
                0x00000000800ecd94                D_800ECD94 = 0x800ecd94
                0x00000000800ecd98                D_800ECD98 = 0x800ecd98
                0x00000000800ecd9c                D_800ECD9C = 0x800ecd9c
                0x00000000800ecda0                D_800ECDA0 = 0x800ecda0
                0x00000000800ecda4                D_800ECDA4 = 0x800ecda4
                0x00000000800ecda8                D_800ECDA8 = 0x800ecda8
                0x00000000800ecdac                D_800ECDAC = 0x800ecdac
                0x00000000800ecdb0                D_800ECDB0 = 0x800ecdb0
                0x00000000800ecdb4                jtbl_800ECDB4 = 0x800ecdb4
                0x00000000800ecfc0                D_800ECFC0 = 0x800ecfc0
                0x00000000800ecfc4                D_800ECFC4 = 0x800ecfc4
                0x00000000800ecfc8                jtbl_800ECFC8 = 0x800ecfc8
                0x00000000800ecfe8                D_800ECFE8 = 0x800ecfe8
                0x00000000800ecfec                D_800ECFEC = 0x800ecfec
                0x00000000800ecff0                D_800ECFF0 = 0x800ecff0
                0x00000000800ecff4                D_800ECFF4 = 0x800ecff4
                0x00000000800ecff8                D_800ECFF8 = 0x800ecff8
                0x00000000800ecffc                D_800ECFFC = 0x800ecffc
                0x00000000800ed000                D_800ED000 = 0x800ed000
                0x00000000800ed004                D_800ED004 = 0x800ed004
                0x00000000800ed008                D_800ED008 = 0x800ed008
                0x00000000800ed00c                D_800ED00C = 0x800ed00c
                0x00000000800ed010                D_800ED010 = 0x800ed010
                0x00000000800ed018                D_800ED018 = 0x800ed018
                0x00000000800ed020                D_800ED020 = 0x800ed020
                0x00000000800ed024                D_800ED024 = 0x800ed024
                0x00000000800ed028                D_800ED028 = 0x800ed028
                0x00000000800ed02c                D_800ED02C = 0x800ed02c
                0x00000000800ed030                jtbl_800ED030 = 0x800ed030
                0x00000000800ed050                D_800ED050 = 0x800ed050
                0x00000000800ed054                D_800ED054 = 0x800ed054
                0x00000000800ed058                D_800ED058 = 0x800ed058
                0x00000000800ed05c                D_800ED05C = 0x800ed05c
                0x00000000800ed060                D_800ED060 = 0x800ed060
                0x00000000800ed064                D_800ED064 = 0x800ed064
                0x00000000800ed070                D_800ED070 = 0x800ed070
                0x00000000800ed078                D_800ED078 = 0x800ed078
                0x00000000800ed080                D_800ED080 = 0x800ed080
                0x00000000800ed088                D_800ED088 = 0x800ed088
                0x00000000800ed090                D_800ED090 = 0x800ed090
                0x00000000800ed098                D_800ED098 = 0x800ed098
                0x00000000800ed0a0                D_800ED0A0 = 0x800ed0a0
                0x00000000800ed0a8                D_800ED0A8 = 0x800ed0a8
                0x00000000800ed0ac                D_800ED0AC = 0x800ed0ac
                0x00000000800ed0c0                D_800ED0C0 = 0x800ed0c0
                0x00000000800ed0c4                D_800ED0C4 = 0x800ed0c4
                0x00000000800ed0c8                D_800ED0C8 = 0x800ed0c8
                0x00000000800ed0cc                D_800ED0CC = 0x800ed0cc
                0x00000000800ed0d0                D_800ED0D0 = 0x800ed0d0
                0x00000000800ed0d4                D_800ED0D4 = 0x800ed0d4
                0x00000000800ed0d8                D_800ED0D8 = 0x800ed0d8
                0x00000000800ed0dc                D_800ED0DC = 0x800ed0dc
                0x00000000800ed0e0                D_800ED0E0 = 0x800ed0e0
                0x00000000800ed0e4                D_800ED0E4 = 0x800ed0e4
                0x00000000800ed0e8                D_800ED0E8 = 0x800ed0e8
                0x00000000800ed0ec                D_800ED0EC = 0x800ed0ec
                0x00000000800ed0f0                D_800ED0F0 = 0x800ed0f0
                0x00000000800ed0f4                D_800ED0F4 = 0x800ed0f4
                0x00000000800ed0f8                D_800ED0F8 = 0x800ed0f8
                0x00000000800ed0fc                D_800ED0FC = 0x800ed0fc
                0x00000000800ed100                D_800ED100 = 0x800ed100
                0x00000000800ed104                D_800ED104 = 0x800ed104
                0x00000000800ed108                D_800ED108 = 0x800ed108
                0x00000000800ed10c                D_800ED10C = 0x800ed10c
                0x00000000800ed110                D_800ED110 = 0x800ed110
                0x00000000800ed114                jtbl_800ED114 = 0x800ed114
                0x00000000800ed140                D_800ED140 = 0x800ed140
                0x00000000800ed144                D_800ED144 = 0x800ed144
                0x00000000800ed148                D_800ED148 = 0x800ed148
                0x00000000800ed14c                D_800ED14C = 0x800ed14c
                0x00000000800ed150                D_800ED150 = 0x800ed150
                0x00000000800ed154                D_800ED154 = 0x800ed154
                0x00000000800ed158                D_800ED158 = 0x800ed158
                0x00000000800ed15c                D_800ED15C = 0x800ed15c
                0x00000000800ed160                D_800ED160 = 0x800ed160
                0x00000000800ed164                D_800ED164 = 0x800ed164
                0x00000000800ed168                D_800ED168 = 0x800ed168
                0x00000000800ed16c                jtbl_800ED16C = 0x800ed16c
                0x00000000800ed198                jtbl_800ED198 = 0x800ed198
                0x00000000800ed1e0                D_800ED1E0 = 0x800ed1e0
                0x00000000800ed1e4                D_800ED1E4 = 0x800ed1e4
                0x00000000800ed1e8                D_800ED1E8 = 0x800ed1e8
                0x00000000800ed1f0                D_800ED1F0 = 0x800ed1f0
                0x00000000800ed1f4                D_800ED1F4 = 0x800ed1f4
                0x00000000800ed1f8                D_800ED1F8 = 0x800ed1f8
                0x00000000800ed1fc                D_800ED1FC = 0x800ed1fc
                0x00000000800ed200                D_800ED200 = 0x800ed200
                0x00000000800ed204                D_800ED204 = 0x800ed204
                0x00000000800ed208                D_800ED208 = 0x800ed208
                0x00000000800ed20c                D_800ED20C = 0x800ed20c
                0x00000000800ed210                D_800ED210 = 0x800ed210
                0x00000000800ed214                D_800ED214 = 0x800ed214
                0x00000000800ed218                D_800ED218 = 0x800ed218
                0x00000000800ed21c                D_800ED21C = 0x800ed21c
                0x00000000800ed220                D_800ED220 = 0x800ed220
                0x00000000800ed224                D_800ED224 = 0x800ed224
                0x00000000800ed228                D_800ED228 = 0x800ed228
                0x00000000800ed22c                D_800ED22C = 0x800ed22c
                0x00000000800ed230                D_800ED230 = 0x800ed230
                0x00000000800ed234                D_800ED234 = 0x800ed234
                0x00000000800ed238                D_800ED238 = 0x800ed238
                0x00000000800ed23c                D_800ED23C = 0x800ed23c
                0x00000000800ed240                D_800ED240 = 0x800ed240
                0x00000000800ed244                D_800ED244 = 0x800ed244
                0x00000000800ed248                D_800ED248 = 0x800ed248
                0x00000000800ed24c                D_800ED24C = 0x800ed24c
                0x00000000800ed250                D_800ED250 = 0x800ed250
                0x00000000800ed254                D_800ED254 = 0x800ed254
                0x00000000800ed258                D_800ED258 = 0x800ed258
                0x00000000800ed260                D_800ED260 = 0x800ed260
                0x00000000800ed264                D_800ED264 = 0x800ed264
                0x00000000800ed268                D_800ED268 = 0x800ed268
                0x00000000800ed26c                D_800ED26C = 0x800ed26c
                0x00000000800ed270                D_800ED270 = 0x800ed270
                0x00000000800ed274                D_800ED274 = 0x800ed274
                0x00000000800ed278                D_800ED278 = 0x800ed278
                0x00000000800ed27c                D_800ED27C = 0x800ed27c
                0x00000000800ed280                D_800ED280 = 0x800ed280
                0x00000000800ed284                D_800ED284 = 0x800ed284
                0x00000000800ed288                jtbl_800ED288 = 0x800ed288
                0x00000000800ed2d8                D_800ED2D8 = 0x800ed2d8
                0x00000000800ed2dc                D_800ED2DC = 0x800ed2dc
                0x00000000800ed2e0                D_800ED2E0 = 0x800ed2e0
                0x00000000800ed2e4                D_800ED2E4 = 0x800ed2e4
                0x00000000800ed2f0                jtbl_800ED2F0 = 0x800ed2f0
                0x00000000800ed348                D_800ED348 = 0x800ed348
                0x00000000800ed34c                D_800ED34C = 0x800ed34c
                0x00000000800ed350                D_800ED350 = 0x800ed350
                0x00000000800ed358                D_800ED358 = 0x800ed358
                0x00000000800ed35c                D_800ED35C = 0x800ed35c
                0x00000000800ed360                D_800ED360 = 0x800ed360
                0x00000000800ed368                D_800ED368 = 0x800ed368
                0x00000000800ed36c                D_800ED36C = 0x800ed36c
                0x00000000800ed370                D_800ED370 = 0x800ed370
                0x00000000800ed374                D_800ED374 = 0x800ed374
                0x00000000800ed378                D_800ED378 = 0x800ed378
                0x00000000800ed37c                D_800ED37C = 0x800ed37c
                0x00000000800ed380                D_800ED380 = 0x800ed380
                0x00000000800ed384                D_800ED384 = 0x800ed384
                0x00000000800ed388                D_800ED388 = 0x800ed388
                0x00000000800ed38c                D_800ED38C = 0x800ed38c
                0x00000000800ed390                D_800ED390 = 0x800ed390
                0x00000000800ed394                D_800ED394 = 0x800ed394
                0x00000000800ed398                D_800ED398 = 0x800ed398
                0x00000000800ed39c                D_800ED39C = 0x800ed39c
                0x00000000800ed3a0                D_800ED3A0 = 0x800ed3a0
                0x00000000800ed3a4                D_800ED3A4 = 0x800ed3a4
                0x00000000800ed3a8                D_800ED3A8 = 0x800ed3a8
                0x00000000800ed3b0                D_800ED3B0 = 0x800ed3b0
                0x00000000800ed3b4                D_800ED3B4 = 0x800ed3b4
                0x00000000800ed3b8                D_800ED3B8 = 0x800ed3b8
                0x00000000800ed3bc                D_800ED3BC = 0x800ed3bc
                0x00000000800ed3c0                D_800ED3C0 = 0x800ed3c0
                0x00000000800ed3c4                D_800ED3C4 = 0x800ed3c4
                0x00000000800ed3c8                jtbl_800ED3C8 = 0x800ed3c8
                0x00000000800ed3e0                jtbl_800ED3E0 = 0x800ed3e0
                0x00000000800ed3f8                D_800ED3F8 = 0x800ed3f8
                0x00000000800ed3fc                D_800ED3FC = 0x800ed3fc
                0x00000000800ed400                D_800ED400 = 0x800ed400
                0x00000000800ed404                jtbl_800ED404 = 0x800ed404
                0x00000000800ed430                D_800ED430 = 0x800ed430
                0x00000000800ed434                D_800ED434 = 0x800ed434
                0x00000000800ed438                D_800ED438 = 0x800ed438
                0x00000000800ed43c                D_800ED43C = 0x800ed43c
                0x00000000800ed440                D_800ED440 = 0x800ed440
                0x00000000800ed444                D_800ED444 = 0x800ed444
                0x00000000800ed448                jtbl_800ED448 = 0x800ed448
                0x00000000800ed4a4                D_800ED4A4 = 0x800ed4a4
                0x00000000800ed4a8                D_800ED4A8 = 0x800ed4a8
                0x00000000800ed4b0                D_800ED4B0 = 0x800ed4b0
                0x00000000800ed4b4                D_800ED4B4 = 0x800ed4b4
                0x00000000800ed4b8                D_800ED4B8 = 0x800ed4b8
                0x00000000800ed4bc                D_800ED4BC = 0x800ed4bc
                0x00000000800ed4c0                D_800ED4C0 = 0x800ed4c0
                0x00000000800ed4c4                D_800ED4C4 = 0x800ed4c4
                0x00000000800ed4c8                D_800ED4C8 = 0x800ed4c8
                0x00000000800ed4d0                D_800ED4D0 = 0x800ed4d0
                0x00000000800ed4d4                D_800ED4D4 = 0x800ed4d4
                0x00000000800ed4d8                D_800ED4D8 = 0x800ed4d8
                0x00000000800ed4dc                D_800ED4DC = 0x800ed4dc
                0x00000000800ed4e0                D_800ED4E0 = 0x800ed4e0
                0x00000000800ed4e8                D_800ED4E8 = 0x800ed4e8
                0x00000000800ed4ec                D_800ED4EC = 0x800ed4ec
                0x00000000800ed4f0                D_800ED4F0 = 0x800ed4f0
                0x00000000800ed500                D_800ED500 = 0x800ed500
                0x00000000800ed504                D_800ED504 = 0x800ed504
                0x00000000800ed508                D_800ED508 = 0x800ed508
                0x00000000800ed50c                D_800ED50C = 0x800ed50c
                0x00000000800ed510                D_800ED510 = 0x800ed510
                0x00000000800ed514                D_800ED514 = 0x800ed514
                0x00000000800ed518                D_800ED518 = 0x800ed518
                0x00000000800ed51c                D_800ED51C = 0x800ed51c
                0x00000000800ed520                D_800ED520 = 0x800ed520
                0x00000000800ed524                D_800ED524 = 0x800ed524
                0x00000000800ed528                D_800ED528 = 0x800ed528
                0x00000000800ed52c                D_800ED52C = 0x800ed52c
                0x00000000800ed530                D_800ED530 = 0x800ed530
                0x00000000800ed534                D_800ED534 = 0x800ed534
                0x00000000800ed538                jtbl_800ED538 = 0x800ed538
                0x00000000800ed560                jtbl_800ED560 = 0x800ed560
                0x00000000800ed574                jtbl_800ED574 = 0x800ed574
                0x00000000800ed5e0                D_800ED5E0 = 0x800ed5e0
                0x00000000800ed5e4                D_800ED5E4 = 0x800ed5e4
                0x00000000800ed5e8                D_800ED5E8 = 0x800ed5e8
                0x00000000800ed5f0                D_800ED5F0 = 0x800ed5f0
                0x00000000800ed5f4                D_800ED5F4 = 0x800ed5f4
                0x00000000800ed600                D_800ED600 = 0x800ed600
                0x00000000800ed614                D_800ED614 = 0x800ed614
                0x00000000800ed630                D_800ED630 = 0x800ed630
                0x00000000800ed640                D_800ED640 = 0x800ed640
                0x00000000800ed6a0                D_800ED6A0 = 0x800ed6a0
                0x00000000800ed6ac                D_800ED6AC = 0x800ed6ac
                0x00000000800ed6c0                D_800ED6C0 = 0x800ed6c0
                0x00000000800ed6e0                D_800ED6E0 = 0x800ed6e0
                0x00000000800ed6f0                jtbl_800ED6F0 = 0x800ed6f0
                0x00000000800ed750                jtbl_800ED750 = 0x800ed750
                0x00000000800ed7a0                jtbl_800ED7A0 = 0x800ed7a0
                0x00000000800ed930                D_800ED930 = 0x800ed930
                0x00000000800ed948                D_800ED948 = 0x800ed948
                0x00000000800ed960                D_800ED960 = 0x800ed960
                0x00000000800ed978                D_800ED978 = 0x800ed978
                0x00000000800ed990                D_800ED990 = 0x800ed990
                0x00000000800ed9a8                D_800ED9A8 = 0x800ed9a8
                0x00000000800ed9c0                D_800ED9C0 = 0x800ed9c0
                0x00000000800ed9d8                D_800ED9D8 = 0x800ed9d8
                0x00000000800ed9e4                D_800ED9E4 = 0x800ed9e4
                0x00000000800eda00                D_800EDA00 = 0x800eda00
                0x00000000800eda10                D_800EDA10 = 0x800eda10
                0x00000000800eda18                D_800EDA18 = 0x800eda18
                0x00000000800eda20                D_800EDA20 = 0x800eda20
                0x00000000800eda3c                D_800EDA3C = 0x800eda3c
                0x00000000800eda4c                D_800EDA4C = 0x800eda4c
                0x00000000800eda50                D_800EDA50 = 0x800eda50
                0x00000000800eda54                D_800EDA54 = 0x800eda54
                0x00000000800eda58                D_800EDA58 = 0x800eda58
                0x00000000800eda5c                D_800EDA5C = 0x800eda5c
                0x00000000800eda60                D_800EDA60 = 0x800eda60
                0x00000000800eda64                D_800EDA64 = 0x800eda64
                0x00000000800eda70                D_800EDA70 = 0x800eda70
                0x00000000800eda80                D_800EDA80 = 0x800eda80
                0x00000000800edaa0                jtbl_800EDAA0 = 0x800edaa0
                0x00000000800edac4                D_800EDAC4 = 0x800edac4
                0x00000000800edaf0                D_800EDAF0 = 0x800edaf0
                0x00000000800edb08                D_800EDB08 = 0x800edb08
                0x00000000800edb1c                D_800EDB1C = 0x800edb1c
                0x00000000800edb2c                D_800EDB2C = 0x800edb2c
                0x00000000800edb40                D_800EDB40 = 0x800edb40
                0x00000000800edb58                D_800EDB58 = 0x800edb58
                0x00000000800edb70                D_800EDB70 = 0x800edb70
                0x00000000800edb80                D_800EDB80 = 0x800edb80
                0x00000000800edba0                jtbl_800EDBA0 = 0x800edba0
                0x00000000800edbf0                D_800EDBF0 = 0x800edbf0
                0x00000000800edc08                D_800EDC08 = 0x800edc08
                0x00000000800edc1c                D_800EDC1C = 0x800edc1c
                0x00000000800edc2c                D_800EDC2C = 0x800edc2c
                0x00000000800edcd8                D_800EDCD8 = 0x800edcd8
                0x00000000800edce0                D_800EDCE0 = 0x800edce0
                0x00000000800ede30                jtbl_800EDE30 = 0x800ede30
                0x00000000800ede90                jtbl_800EDE90 = 0x800ede90
                0x00000000800edee0                D_800EDEE0 = 0x800edee0
                0x00000000800edefc                D_800EDEFC = 0x800edefc
                0x00000000800edf10                D_800EDF10 = 0x800edf10
                0x00000000800edf28                D_800EDF28 = 0x800edf28
                0x00000000800edf3c                D_800EDF3C = 0x800edf3c
                0x00000000800edf58                D_800EDF58 = 0x800edf58
                0x00000000800edf6c                D_800EDF6C = 0x800edf6c
                0x00000000800edf80                D_800EDF80 = 0x800edf80
                0x00000000800edfa0                D_800EDFA0 = 0x800edfa0
                0x00000000800edfb8                D_800EDFB8 = 0x800edfb8
                0x00000000800edfd0                D_800EDFD0 = 0x800edfd0
                0x00000000800edfe8                D_800EDFE8 = 0x800edfe8
                0x00000000800ee004                D_800EE004 = 0x800ee004
                0x00000000800ee01c                D_800EE01C = 0x800ee01c
                0x00000000800ee038                D_800EE038 = 0x800ee038
                0x00000000800ee050                D_800EE050 = 0x800ee050
                0x00000000800ee058                D_800EE058 = 0x800ee058
                0x00000000800ee070                D_800EE070 = 0x800ee070
                0x00000000800ee078                D_800EE078 = 0x800ee078
                0x00000000800ee090                D_800EE090 = 0x800ee090
                0x00000000800ee0d4                D_800EE0D4 = 0x800ee0d4
                0x00000000800ee0ec                D_800EE0EC = 0x800ee0ec
                0x00000000800ee100                D_800EE100 = 0x800ee100
                0x00000000800ee118                D_800EE118 = 0x800ee118
                0x00000000800ee128                D_800EE128 = 0x800ee128
                0x00000000800ee140                jtbl_800EE140 = 0x800ee140
                0x00000000800ee1a0                jtbl_800EE1A0 = 0x800ee1a0
                0x00000000800ee324                jtbl_800EE324 = 0x800ee324
                0x00000000800ee380                D_800EE380 = 0x800ee380
                0x00000000800ee384                D_800EE384 = 0x800ee384
                0x00000000800ee390                D_800EE390 = 0x800ee390
                0x00000000800ee410                D_800EE410 = 0x800ee410
                0x00000000800ee424                D_800EE424 = 0x800ee424
                0x00000000800ee438                D_800EE438 = 0x800ee438
                0x00000000800ee44c                D_800EE44C = 0x800ee44c
                0x00000000800ee460                D_800EE460 = 0x800ee460
                0x00000000800ee474                D_800EE474 = 0x800ee474
                0x00000000800ee488                D_800EE488 = 0x800ee488
                0x00000000800ee49c                D_800EE49C = 0x800ee49c
                0x00000000800ee4b0                D_800EE4B0 = 0x800ee4b0
                0x00000000800ee4c4                D_800EE4C4 = 0x800ee4c4
                0x00000000800ee4d8                jtbl_800EE4D8 = 0x800ee4d8
                0x00000000800ee4f0                D_800EE4F0 = 0x800ee4f0
                0x00000000800ee500                D_800EE500 = 0x800ee500
                0x00000000800ee508                D_800EE508 = 0x800ee508
                0x00000000800ee50c                jtbl_800EE50C = 0x800ee50c
                0x00000000800ee530                D_800EE530 = 0x800ee530
                0x00000000800ee540                D_800EE540 = 0x800ee540
                0x00000000800ee550                D_800EE550 = 0x800ee550
                0x00000000800ee570                D_800EE570 = 0x800ee570
                0x00000000800ee580                D_800EE580 = 0x800ee580
                0x00000000800ee588                D_800EE588 = 0x800ee588
                0x00000000800ee598                jtbl_800EE598 = 0x800ee598
                0x00000000800ee5e0                D_800EE5E0 = 0x800ee5e0
                0x00000000800ee5e8                D_800EE5E8 = 0x800ee5e8
                0x00000000800ee5f0                D_800EE5F0 = 0x800ee5f0
                0x00000000800ee604                D_800EE604 = 0x800ee604
                0x00000000800ee620                D_800EE620 = 0x800ee620
                0x00000000800ee648                D_800EE648 = 0x800ee648
                0x00000000800ee650                D_800EE650 = 0x800ee650
                0x00000000800ee658                D_800EE658 = 0x800ee658
                0x00000000800ee660                D_800EE660 = 0x800ee660
                0x00000000800ee670                D_800EE670 = 0x800ee670
                0x00000000800ee698                D_800EE698 = 0x800ee698
                0x00000000800ee6a0                D_800EE6A0 = 0x800ee6a0
                0x00000000800ee6a8                D_800EE6A8 = 0x800ee6a8
                0x00000000800ee6b0                D_800EE6B0 = 0x800ee6b0
                0x00000000800ee6c0                D_800EE6C0 = 0x800ee6c0
                0x00000000800ee6c4                D_800EE6C4 = 0x800ee6c4
                0x00000000800ee6cc                D_800EE6CC = 0x800ee6cc
                0x00000000800ee6e4                jtbl_800EE6E4 = 0x800ee6e4
                0x00000000800ee7c0                D_800EE7C0 = 0x800ee7c0
                0x00000000800ee7d0                D_800EE7D0 = 0x800ee7d0
                0x00000000800ee7f0                D_800EE7F0 = 0x800ee7f0
                0x00000000800ee808                D_800EE808 = 0x800ee808
                0x00000000800ee940                D_800EE940 = 0x800ee940
                0x00000000800ee948                D_800EE948 = 0x800ee948
                0x00000000800ee950                D_800EE950 = 0x800ee950
                0x00000000800ee958                D_800EE958 = 0x800ee958
                0x00000000800ee96c                jtbl_800EE96C = 0x800ee96c
                0x00000000800ee990                D_800EE990 = 0x800ee990
                0x00000000800ee9a0                D_800EE9A0 = 0x800ee9a0
                0x00000000800ee9b0                D_800EE9B0 = 0x800ee9b0
                0x00000000800ee9f8                D_800EE9F8 = 0x800ee9f8
                0x00000000800ee9fc                D_800EE9FC = 0x800ee9fc
                0x00000000800eea00                D_800EEA00 = 0x800eea00
                0x00000000800eea08                D_800EEA08 = 0x800eea08
                0x00000000800eea10                D_800EEA10 = 0x800eea10
                0x00000000800ef210                D_800EF210 = 0x800ef210
                0x00000000800ef4d0                D_800EF4D0 = 0x800ef4d0
                0x00000000800ef4d2                D_800EF4D2 = 0x800ef4d2
                0x00000000800ef4d4                D_800EF4D4 = 0x800ef4d4
                0x00000000800ef4d8                D_800EF4D8 = 0x800ef4d8
                0x00000000800ef4e0                D_800EF4E0 = 0x800ef4e0
                0x00000000800ef4f0                D_800EF4F0 = 0x800ef4f0
                0x00000000800ef4f4                D_800EF4F4 = 0x800ef4f4
                0x00000000800ef4f8                D_800EF4F8 = 0x800ef4f8
                0x00000000800ef500                D_800EF500 = 0x800ef500
                0x00000000800ef508                D_800EF508 = 0x800ef508
                0x00000000800ef510                D_800EF510 = 0x800ef510
                0x00000000800ef590                D_800EF590 = 0x800ef590
                0x00000000800ef592                D_800EF592 = 0x800ef592
                0x00000000800ef594                D_800EF594 = 0x800ef594
                0x00000000800ef598                D_800EF598 = 0x800ef598
                0x00000000800ef59c                D_800EF59C = 0x800ef59c
                0x00000000800ef5a0                D_800EF5A0 = 0x800ef5a0
                0x00000000800ef5a4                D_800EF5A4 = 0x800ef5a4
                0x00000000800ef5a8                D_800EF5A8 = 0x800ef5a8
                0x00000000800ef5ac                D_800EF5AC = 0x800ef5ac
                0x00000000800ef5ad                D_800EF5AD = 0x800ef5ad
                0x00000000800ef5ae                D_800EF5AE = 0x800ef5ae
                0x00000000800ef5af                D_800EF5AF = 0x800ef5af
                0x00000000800ef5b0                D_800EF5B0 = 0x800ef5b0
                0x00000000800ef5c4                D_800EF5C4 = 0x800ef5c4
                0x00000000800ef5c8                D_800EF5C8 = 0x800ef5c8
                0x00000000800ef5d4                D_800EF5D4 = 0x800ef5d4
                0x00000000800ef5e0                D_800EF5E0 = 0x800ef5e0
                0x00000000800ef5e1                D_800EF5E1 = 0x800ef5e1
                0x00000000800ef5e2                D_800EF5E2 = 0x800ef5e2
                0x00000000800ef5e4                D_800EF5E4 = 0x800ef5e4
                0x00000000800ef5e8                D_800EF5E8 = 0x800ef5e8
                0x00000000800ef5ee                D_800EF5EE = 0x800ef5ee
                0x00000000800ef5ef                D_800EF5EF = 0x800ef5ef
                0x00000000800ef5f0                D_800EF5F0 = 0x800ef5f0
                0x00000000800ef5fc                D_800EF5FC = 0x800ef5fc
                0x00000000800ef600                D_800EF600 = 0x800ef600
                0x00000000800ef604                D_800EF604 = 0x800ef604
                0x00000000800ef608                D_800EF608 = 0x800ef608
                0x00000000800ef60c                D_800EF60C = 0x800ef60c
                0x00000000800ef616                D_800EF616 = 0x800ef616
                0x00000000800ef620                D_800EF620 = 0x800ef620
                0x00000000800ef628                D_800EF628 = 0x800ef628
                0x00000000800ef630                D_800EF630 = 0x800ef630
                0x00000000800ef63e                D_800EF63E = 0x800ef63e
                0x00000000800ef63f                D_800EF63F = 0x800ef63f
                0x00000000800ef658                D_800EF658 = 0x800ef658
                0x00000000800ef664                D_800EF664 = 0x800ef664
                0x00000000800ef668                D_800EF668 = 0x800ef668
                0x00000000800ef678                D_800EF678 = 0x800ef678
                0x00000000800ef680                D_800EF680 = 0x800ef680
                0x00000000800ef682                D_800EF682 = 0x800ef682
                0x00000000800ef688                D_800EF688 = 0x800ef688
                0x00000000800ef690                D_800EF690 = 0x800ef690
                0x00000000800ef694                D_800EF694 = 0x800ef694
                0x00000000800ef698                D_800EF698 = 0x800ef698
                0x00000000800ef69c                D_800EF69C = 0x800ef69c
                0x00000000800ef6a8                D_800EF6A8 = 0x800ef6a8
                0x00000000800ef728                D_800EF728 = 0x800ef728
                0x00000000800ef730                D_800EF730 = 0x800ef730
                0x00000000800ef734                D_800EF734 = 0x800ef734
                0x00000000800ef738                D_800EF738 = 0x800ef738
                0x00000000800ef780                D_800EF780 = 0x800ef780
                0x00000000800ef7b8                D_800EF7B8 = 0x800ef7b8
                0x00000000800ef7d8                D_800EF7D8 = 0x800ef7d8
                0x00000000800ef8c8                D_800EF8C8 = 0x800ef8c8
                0x00000000800ef8cc                D_800EF8CC = 0x800ef8cc
                0x00000000800ef8d0                D_800EF8D0 = 0x800ef8d0
                0x00000000800ef9c0                D_800EF9C0 = 0x800ef9c0
                0x00000000800efa68                D_800EFA68 = 0x800efa68
                0x00000000800efb70                D_800EFB70 = 0x800efb70
                0x00000000800f0080                D_800F0080 = 0x800f0080
                0x00000000800f00d6                D_800F00D6 = 0x800f00d6
                0x00000000800f026e                D_800F026E = 0x800f026e
                0x00000000800f0406                D_800F0406 = 0x800f0406
                0x00000000800f048b                D_800F048B = 0x800f048b
                0x00000000800f059e                D_800F059E = 0x800f059e
                0x00000000800f0736                D_800F0736 = 0x800f0736
                0x00000000800f08b0                D_800F08B0 = 0x800f08b0
                0x00000000800f0a48                D_800F0A48 = 0x800f0a48
                0x00000000800f0be0                D_800F0BE0 = 0x800f0be0
                0x00000000800f0d78                D_800F0D78 = 0x800f0d78
                0x00000000800f0e90                D_800F0E90 = 0x800f0e90
                0x00000000800f0f10                D_800F0F10 = 0x800f0f10
                0x00000000800f0f18                D_800F0F18 = 0x800f0f18
                0x00000000800f0f1c                D_800F0F1C = 0x800f0f1c
                0x00000000800f0f24                D_800F0F24 = 0x800f0f24
                0x00000000800f0f2f                D_800F0F2F = 0x800f0f2f
                0x00000000800f0f60                D_800F0F60 = 0x800f0f60
                0x00000000800f0f62                D_800F0F62 = 0x800f0f62
                0x00000000800f0f68                D_800F0F68 = 0x800f0f68
                0x00000000800f0f70                D_800F0F70 = 0x800f0f70
                0x00000000800f0fa0                D_800F0FA0 = 0x800f0fa0
                0x00000000800f10a8                D_800F10A8 = 0x800f10a8
                0x00000000800f1240                D_800F1240 = 0x800f1240
                0x00000000800f13d8                D_800F13D8 = 0x800f13d8
                0x00000000800f1570                D_800F1570 = 0x800f1570
                0x00000000800f1708                D_800F1708 = 0x800f1708
                0x00000000800f4190                D_800F4190 = 0x800f4190
                0x00000000800f4210                D_800F4210 = 0x800f4210
                0x00000000800f4218                D_800F4218 = 0x800f4218
                0x00000000800f421c                D_800F421C = 0x800f421c
                0x00000000800f4224                D_800F4224 = 0x800f4224
                0x00000000800f422c                D_800F422C = 0x800f422c
                0x00000000800f422f                D_800F422F = 0x800f422f
                0x00000000800f423a                D_800F423A = 0x800f423a
                0x00000000800f423c                D_800F423C = 0x800f423c
                0x00000000800f423e                D_800F423E = 0x800f423e
                0x00000000800f4240                D_800F4240 = 0x800f4240
                0x00000000800f4244                D_800F4244 = 0x800f4244
                0x00000000800f424c                D_800F424C = 0x800f424c
                0x00000000800f4262                D_800F4262 = 0x800f4262
                0x00000000800f4268                D_800F4268 = 0x800f4268
                0x00000000800f42a0                D_800F42A0 = 0x800f42a0
                0x00000000800f42bc                D_800F42BC = 0x800f42bc
                0x00000000800f42e4                D_800F42E4 = 0x800f42e4
                0x00000000800f42e8                D_800F42E8 = 0x800f42e8
                0x00000000800f430c                D_800F430C = 0x800f430c
                0x00000000800f4310                D_800F4310 = 0x800f4310
                0x00000000800f43a8                D_800F43A8 = 0x800f43a8
                0x00000000800f43b4                D_800F43B4 = 0x800f43b4
                0x00000000800f43bc                D_800F43BC = 0x800f43bc
                0x00000000800f43c4                D_800F43C4 = 0x800f43c4
                0x00000000800f43c5                D_800F43C5 = 0x800f43c5
                0x00000000800f43c6                D_800F43C6 = 0x800f43c6
                0x00000000800f43c7                D_800F43C7 = 0x800f43c7
                0x00000000800f43d2                D_800F43D2 = 0x800f43d2
                0x00000000800f43d4                D_800F43D4 = 0x800f43d4
                0x00000000800f43d6                D_800F43D6 = 0x800f43d6
                0x00000000800f43d8                D_800F43D8 = 0x800f43d8
                0x00000000800f43dc                D_800F43DC = 0x800f43dc
                0x00000000800f43e0                D_800F43E0 = 0x800f43e0
                0x00000000800f447c                D_800F447C = 0x800f447c
                0x00000000800f4480                D_800F4480 = 0x800f4480
                0x00000000800f44a4                D_800F44A4 = 0x800f44a4
                0x00000000800f44a8                D_800F44A8 = 0x800f44a8
                0x00000000800f4540                D_800F4540 = 0x800f4540
                0x00000000800f454c                D_800F454C = 0x800f454c
                0x00000000800f4658                D_800F4658 = 0x800f4658
                0x00000000800f46d8                D_800F46D8 = 0x800f46d8
                0x00000000800f46f7                D_800F46F7 = 0x800f46f7
                0x00000000800f5d28                D_800F5D28 = 0x800f5d28
                0x00000000800f6850                D_800F6850 = 0x800f6850
                0x00000000800f7510                D_800F7510 = 0x800f7510
                0x00000000800f777c                D_800F777C = 0x800f777c
                0x00000000800fa8e4                D_800FA8E4 = 0x800fa8e4
                0x00000000800fa8e6                D_800FA8E6 = 0x800fa8e6
                0x00000000800fb4d8                D_800FB4D8 = 0x800fb4d8
                0x00000000800fd5bc                D_800FD5BC = 0x800fd5bc
                0x00000000800fd8f8                D_800FD8F8 = 0x800fd8f8
                0x00000000800fd978                D_800FD978 = 0x800fd978
                0x00000000800fd9ca                D_800FD9CA = 0x800fd9ca
                0x00000000800fd9ce                D_800FD9CE = 0x800fd9ce
                0x00000000800fd9fc                D_800FD9FC = 0x800fd9fc
                0x00000000800fda00                D_800FDA00 = 0x800fda00
                0x00000000800fda04                D_800FDA04 = 0x800fda04
                0x00000000800fda90                D_800FDA90 = 0x800fda90
                0x00000000800fdbec                D_800FDBEC = 0x800fdbec
                0x00000000800ff510                D_800FF510 = 0x800ff510
                0x00000000801012f8                D_801012F8 = 0x801012f8
                0x0000000080101490                D_80101490 = 0x80101490
                0x0000000080101628                D_80101628 = 0x80101628
                0x00000000801017c0                D_801017C0 = 0x801017c0
                0x0000000080101958                D_80101958 = 0x80101958
                0x0000000080101c88                D_80101C88 = 0x80101c88
                0x0000000080101e20                D_80101E20 = 0x80101e20
                0x0000000080102150                D_80102150 = 0x80102150
                0x00000000801022e8                D_801022E8 = 0x801022e8
                0x0000000080102710                D_80102710 = 0x80102710
                0x0000000080102790                D_80102790 = 0x80102790
                0x0000000080102794                D_80102794 = 0x80102794
                0x0000000080102798                D_80102798 = 0x80102798
                0x000000008010279c                D_8010279C = 0x8010279c
                0x00000000801027a4                D_801027A4 = 0x801027a4
                0x00000000801027e2                D_801027E2 = 0x801027e2
                0x0000000080102820                D_80102820 = 0x80102820
                0x0000000080102860                D_80102860 = 0x80102860
                0x0000000080102864                D_80102864 = 0x80102864
                0x0000000080102868                D_80102868 = 0x80102868
                0x000000008010286c                D_8010286C = 0x8010286c
                0x0000000080102880                D_80102880 = 0x80102880
                0x0000000080102898                D_80102898 = 0x80102898
                0x000000008010289c                D_8010289C = 0x8010289c
                0x0000000080102928                D_80102928 = 0x80102928
                0x000000008010292c                D_8010292C = 0x8010292c
                0x0000000080102930                D_80102930 = 0x80102930
                0x0000000080102934                D_80102934 = 0x80102934
                0x0000000080102938                D_80102938 = 0x80102938
                0x000000008010293c                D_8010293C = 0x8010293c
                0x0000000080102946                D_80102946 = 0x80102946
                0x000000008010295c                D_8010295C = 0x8010295c
                0x0000000080102960                D_80102960 = 0x80102960
                0x000000008010297a                D_8010297A = 0x8010297a
                0x00000000801029f0                D_801029F0 = 0x801029f0
                0x00000000801033d0                D_801033D0 = 0x801033d0
                0x0000000080103450                D_80103450 = 0x80103450
                0x0000000080103480                D_80103480 = 0x80103480
                0x00000000801035e8                D_801035E8 = 0x801035e8
                0x0000000080103616                D_80103616 = 0x80103616
                0x0000000080103780                D_80103780 = 0x80103780
                0x00000000801037aa                D_801037AA = 0x801037aa
                0x0000000080103918                D_80103918 = 0x80103918
                0x0000000080103944                D_80103944 = 0x80103944
                0x0000000080103ab0                D_80103AB0 = 0x80103ab0
                0x0000000080103c48                D_80103C48 = 0x80103c48
                0x0000000080103c5c                D_80103C5C = 0x80103c5c
                0x0000000080103d54                D_80103D54 = 0x80103d54
                0x0000000080103de0                D_80103DE0 = 0x80103de0
                0x0000000080103df4                D_80103DF4 = 0x80103df4
                0x0000000080103eec                D_80103EEC = 0x80103eec
                0x0000000080103f78                D_80103F78 = 0x80103f78
                0x0000000080103f84                D_80103F84 = 0x80103f84
                0x0000000080103f8c                D_80103F8C = 0x80103f8c
                0x0000000080104090                D_80104090 = 0x80104090
                0x0000000080104098                D_80104098 = 0x80104098
                0x000000008010411a                D_8010411A = 0x8010411a
                0x0000000080106920                D_80106920 = 0x80106920
                0x00000000801069ba                D_801069BA = 0x801069ba
                0x00000000801069bc                D_801069BC = 0x801069bc
                0x00000000801069c0                D_801069C0 = 0x801069c0
                0x00000000801069d8                D_801069D8 = 0x801069d8
                0x00000000801069e0                D_801069E0 = 0x801069e0
                0x0000000080108de0                D_80108DE0 = 0x80108de0
                0x0000000080108de8                D_80108DE8 = 0x80108de8
                0x000000008010cde8                D_8010CDE8 = 0x8010cde8
                0x000000008010cdf0                D_8010CDF0 = 0x8010cdf0
                0x000000008011cdf0                D_8011CDF0 = 0x8011cdf0
                0x000000008011cdf8                D_8011CDF8 = 0x8011cdf8
                0x000000008011cf18                D_8011CF18 = 0x8011cf18
                0x000000008011cf20                D_8011CF20 = 0x8011cf20
                0x000000008011d048                D_8011D048 = 0x8011d048
                0x000000008011d170                D_8011D170 = 0x8011d170
                0x000000008011d290                D_8011D290 = 0x8011d290
                0x000000008011d3b0                D_8011D3B0 = 0x8011d3b0
                0x000000008011d3d0                D_8011D3D0 = 0x8011d3d0
                0x000000008011d4f0                D_8011D4F0 = 0x8011d4f0
                0x000000008011d610                D_8011D610 = 0x8011d610
                0x000000008011d730                D_8011D730 = 0x8011d730
                0x000000008011d850                D_8011D850 = 0x8011d850
                0x000000008011d970                D_8011D970 = 0x8011d970
                0x000000008011dd70                D_8011DD70 = 0x8011dd70
                0x000000008011ddf0                D_8011DDF0 = 0x8011ddf0
                0x00000000801225f0                D_801225F0 = 0x801225f0
                0x0000000080124670                D_80124670 = 0x80124670
                0x0000000080126670                D_80126670 = 0x80126670
                0x0000000080128670                gRmonStack = 0x80128670
                0x0000000080129670                D_80129670 = 0x80129670
                0x000000008012a670                gDListHead = 0x8012a670
                0x000000008012a678                D_8012A678 = 0x8012a678
                0x000000008012a698                sIdleThread = 0x8012a698
                0x000000008012a848                sMainThread = 0x8012a848
                0x000000008012a9f8                sRmonThread = 0x8012a9f8
                0x000000008012abf0                D_8012ABF0 = 0x8012abf0
                0x000000008012ac08                D_8012AC08 = 0x8012ac08
                0x000000008012ac20                D_8012AC20 = 0x8012ac20
                0x000000008012ac38                D_8012AC38 = 0x8012ac38
                0x000000008012ac68                D_8012AC68 = 0x8012ac68
                0x000000008012ac6c                D_8012AC6C = 0x8012ac6c
                0x000000008012ac70                D_8012AC70 = 0x8012ac70
                0x000000008012ac74                D_8012AC74 = 0x8012ac74
                0x000000008012ac78                D_8012AC78 = 0x8012ac78
                0x000000008012ac7c                D_8012AC7C = 0x8012ac7c
                0x000000008012ac80                D_8012AC80 = 0x8012ac80
                0x000000008012ac84                gGFXTaskp = 0x8012ac84
                0x000000008012ac88                gGFXTasks = 0x8012ac88
                0x000000008012ad08                gOSViModep = 0x8012ad08
                0x000000008012ad10                gOSViMode = 0x8012ad10
                0x000000008012ad60                D_8012AD60 = 0x8012ad60
                0x000000008012ad63                D_8012AD63 = 0x8012ad63
                0x000000008012ad67                D_8012AD67 = 0x8012ad67
                0x000000008012ad6b                D_8012AD6B = 0x8012ad6b
                0x000000008012ad6f                D_8012AD6F = 0x8012ad6f
                0x000000008012ad70                D_8012AD70 = 0x8012ad70
                0x000000008012ad88                D_8012AD88 = 0x8012ad88
                0x000000008012ada0                D_8012ADA0 = 0x8012ada0
                0x000000008012adb8                D_8012ADB8 = 0x8012adb8
                0x000000008012adc0                gDListTail = 0x8012adc0
                0x0000000080130f40                D_80130F40 = 0x80130f40
                0x00000000801370c0                D_801370C0 = 0x801370c0
                0x00000000801370c4                D_801370C4 = 0x801370c4
                0x00000000801370c8                D_801370C8 = 0x801370c8
                0x00000000801370cc                D_801370CC = 0x801370cc
                0x00000000801370ce                D_801370CE = 0x801370ce
                0x00000000801370d0                D_801370D0 = 0x801370d0
                0x00000000801370d2                D_801370D2 = 0x801370d2
                0x00000000801370d4                D_801370D4 = 0x801370d4
                0x00000000801370d8                D_801370D8 = 0x801370d8
                0x00000000801371d8                D_801371D8 = 0x801371d8
                0x00000000801372d8                D_801372D8 = 0x801372d8
                0x00000000801373d8                D_801373D8 = 0x801373d8
                0x00000000801373dc                D_801373DC = 0x801373dc
                0x00000000801373de                D_801373DE = 0x801373de
                0x00000000801373e0                D_801373E0 = 0x801373e0
                0x00000000801373e4                D_801373E4 = 0x801373e4
                0x00000000801373ea                D_801373EA = 0x801373ea
                0x00000000801373ec                D_801373EC = 0x801373ec
                0x00000000801373ee                D_801373EE = 0x801373ee
                0x00000000801373f0                D_801373F0 = 0x801373f0
                0x00000000801373f2                D_801373F2 = 0x801373f2
                0x00000000801373f3                D_801373F3 = 0x801373f3
                0x0000000080137420                D_80137420 = 0x80137420
                0x0000000080137444                D_80137444 = 0x80137444
                0x0000000080137450                D_80137450 = 0x80137450
                0x0000000080137458                D_80137458 = 0x80137458
                0x000000008013745c                D_8013745C = 0x8013745c
                0x0000000080137460                D_80137460 = 0x80137460
                0x0000000080137468                D_80137468 = 0x80137468
                0x000000008013746c                D_8013746C = 0x8013746c
                0x0000000080137470                D_80137470 = 0x80137470
                0x0000000080137474                D_80137474 = 0x80137474
                0x0000000080137476                D_80137476 = 0x80137476
                0x0000000080137478                D_80137478 = 0x80137478
                0x000000008013747c                D_8013747C = 0x8013747c
                0x0000000080137480                D_80137480 = 0x80137480
                0x00000000801374dc                D_801374DC = 0x801374dc
                0x00000000801374f0                D_801374F0 = 0x801374f0
                0x00000000801374f2                D_801374F2 = 0x801374f2
                0x00000000801374f4                D_801374F4 = 0x801374f4
                0x0000000080137568                D_80137568 = 0x80137568
                0x000000008013757c                D_8013757C = 0x8013757c
                0x0000000080137580                D_80137580 = 0x80137580
                0x0000000080137582                D_80137582 = 0x80137582
                0x0000000080137584                D_80137584 = 0x80137584
                0x000000008013760c                D_8013760C = 0x8013760c
                0x0000000080137610                D_80137610 = 0x80137610
                0x0000000080137612                D_80137612 = 0x80137612
                0x0000000080137614                D_80137614 = 0x80137614
                0x000000008013769c                D_8013769C = 0x8013769c
                0x00000000801376a0                D_801376A0 = 0x801376a0
                0x00000000801376a4                D_801376A4 = 0x801376a4
                0x00000000801376a8                D_801376A8 = 0x801376a8
                0x00000000801376a9                D_801376A9 = 0x801376a9
                0x00000000801376ac                D_801376AC = 0x801376ac
                0x00000000801376ad                D_801376AD = 0x801376ad
                0x00000000801376b0                D_801376B0 = 0x801376b0
                0x00000000801376b1                D_801376B1 = 0x801376b1
                0x00000000801376b4                D_801376B4 = 0x801376b4
                0x00000000801376b5                D_801376B5 = 0x801376b5
                0x00000000801376b8                D_801376B8 = 0x801376b8
                0x00000000801376b9                D_801376B9 = 0x801376b9
                0x00000000801376bc                D_801376BC = 0x801376bc
                0x00000000801376bd                D_801376BD = 0x801376bd
                0x00000000801376c0                D_801376C0 = 0x801376c0
                0x00000000801376c4                D_801376C4 = 0x801376c4
                0x00000000801376c8                D_801376C8 = 0x801376c8
                0x00000000801376cc                D_801376CC = 0x801376cc
                0x00000000801376d0                D_801376D0 = 0x801376d0
                0x00000000801376d4                D_801376D4 = 0x801376d4
                0x00000000801376d8                D_801376D8 = 0x801376d8
                0x00000000801376dc                D_801376DC = 0x801376dc
                0x00000000801376e0                D_801376E0 = 0x801376e0
                0x00000000801376e4                D_801376E4 = 0x801376e4
                0x00000000801376e8                D_801376E8 = 0x801376e8
                0x00000000801376ec                D_801376EC = 0x801376ec
                0x00000000801376f0                D_801376F0 = 0x801376f0
                0x00000000801376f4                D_801376F4 = 0x801376f4
                0x00000000801376f8                D_801376F8 = 0x801376f8
                0x00000000801376fc                D_801376FC = 0x801376fc
                0x0000000080137700                D_80137700 = 0x80137700
                0x0000000080137704                D_80137704 = 0x80137704
                0x0000000080137708                D_80137708 = 0x80137708
                0x000000008013770c                D_8013770C = 0x8013770c
                0x0000000080137710                D_80137710 = 0x80137710
                0x0000000080137714                D_80137714 = 0x80137714
                0x0000000080137718                D_80137718 = 0x80137718
                0x000000008013771c                D_8013771C = 0x8013771c
                0x0000000080137720                D_80137720 = 0x80137720
                0x0000000080137724                D_80137724 = 0x80137724
                0x0000000080137728                D_80137728 = 0x80137728
                0x000000008013772c                D_8013772C = 0x8013772c
                0x0000000080137730                D_80137730 = 0x80137730
                0x0000000080137734                D_80137734 = 0x80137734
                0x0000000080137738                D_80137738 = 0x80137738
                0x000000008013773c                D_8013773C = 0x8013773c
                0x0000000080137740                D_80137740 = 0x80137740
                0x0000000080137744                D_80137744 = 0x80137744
                0x0000000080137748                D_80137748 = 0x80137748
                0x000000008013774c                D_8013774C = 0x8013774c
                0x0000000080137750                D_80137750 = 0x80137750
                0x000000008013776c                D_8013776C = 0x8013776c
                0x0000000080137770                D_80137770 = 0x80137770
                0x0000000080137774                D_80137774 = 0x80137774
                0x0000000080137778                D_80137778 = 0x80137778
                0x000000008013777c                D_8013777C = 0x8013777c
                0x0000000080137780                D_80137780 = 0x80137780
                0x0000000080137784                D_80137784 = 0x80137784
                0x0000000080137788                D_80137788 = 0x80137788
                0x000000008013778c                D_8013778C = 0x8013778c
                0x0000000080137790                D_80137790 = 0x80137790
                0x0000000080137794                D_80137794 = 0x80137794
                0x0000000080137798                D_80137798 = 0x80137798
                0x00000000801377b8                D_801377B8 = 0x801377b8
                0x00000000801377d0                D_801377D0 = 0x801377d0
                0x0000000080137800                D_80137800 = 0x80137800
                0x00000000801378c0                D_801378C0 = 0x801378c0
                0x00000000801378c8                D_801378C8 = 0x801378c8
                0x00000000801378e0                D_801378E0 = 0x801378e0
                0x0000000080137d60                D_80137D60 = 0x80137d60
                0x0000000080137d68                D_80137D68 = 0x80137d68
                0x0000000080137d70                D_80137D70 = 0x80137d70
                0x0000000080137d80                D_80137D80 = 0x80137d80
                0x0000000080137d90                D_80137D90 = 0x80137d90
                0x0000000080137d92                D_80137D92 = 0x80137d92
                0x0000000080137d94                D_80137D94 = 0x80137d94
                0x0000000080137d96                D_80137D96 = 0x80137d96
                0x0000000080137d98                D_80137D98 = 0x80137d98
                0x0000000080137da0                D_80137DA0 = 0x80137da0
                0x0000000080137da8                D_80137DA8 = 0x80137da8
                0x000000008016d9a8                D_8016D9A8 = 0x8016d9a8
                0x000000008016d9b8                D_8016D9B8 = 0x8016d9b8
                0x000000008016d9cc                D_8016D9CC = 0x8016d9cc
                0x000000008016deb8                D_8016DEB8 = 0x8016deb8
                0x000000008016dec0                D_8016DEC0 = 0x8016dec0
                0x000000008016df10                D_8016DF10 = 0x8016df10
                0x000000008016df34                D_8016DF34 = 0x8016df34
                0x000000008016df38                D_8016DF38 = 0x8016df38
                0x000000008016df3c                D_8016DF3C = 0x8016df3c
                0x000000008016df40                D_8016DF40 = 0x8016df40
                0x000000008016df44                D_8016DF44 = 0x8016df44
                0x000000008016df48                D_8016DF48 = 0x8016df48
                0x000000008016df68                D_8016DF68 = 0x8016df68
                0x000000008016dfe4                D_8016DFE4 = 0x8016dfe4
                0x000000008016dfe8                D_8016DFE8 = 0x8016dfe8
                0x000000008016e1d8                D_8016E1D8 = 0x8016e1d8
                0x000000008016e1e8                D_8016E1E8 = 0x8016e1e8
                0x000000008016e2e0                D_8016E2E0 = 0x8016e2e0
                0x000000008016e2e8                D_8016E2E8 = 0x8016e2e8
                0x000000008016e6c8                D_8016E6C8 = 0x8016e6c8
                0x000000008016e6d8                D_8016E6D8 = 0x8016e6d8
                0x000000008016e6e0                D_8016E6E0 = 0x8016e6e0
                0x000000008016e6f0                D_8016E6F0 = 0x8016e6f0
                0x000000008016e6f4                D_8016E6F4 = 0x8016e6f4
                0x000000008016e6f8                D_8016E6F8 = 0x8016e6f8
                0x000000008016e6fc                D_8016E6FC = 0x8016e6fc
                0x000000008016e700                D_8016E700 = 0x8016e700
                0x000000008016e704                D_8016E704 = 0x8016e704
                0x000000008016e708                D_8016E708 = 0x8016e708
                0x000000008016e70c                D_8016E70C = 0x8016e70c
                0x000000008016e710                D_8016E710 = 0x8016e710
                0x000000008016e714                D_8016E714 = 0x8016e714
                0x000000008016e718                D_8016E718 = 0x8016e718
                0x000000008016e71c                D_8016E71C = 0x8016e71c
                0x000000008016e720                D_8016E720 = 0x8016e720
                0x000000008016e724                D_8016E724 = 0x8016e724
                0x000000008016e728                D_8016E728 = 0x8016e728
                0x000000008016e740                D_8016E740 = 0x8016e740
                0x000000008016e748                D_8016E748 = 0x8016e748
                0x000000008016e820                D_8016E820 = 0x8016e820
                0x000000008016ef20                D_8016EF20 = 0x8016ef20
                0x0000000080171aa0                D_80171AA0 = 0x80171aa0
                0x0000000080171ab6                D_80171AB6 = 0x80171ab6
                0x0000000080171acc                D_80171ACC = 0x80171acc
                0x0000000080171acd                D_80171ACD = 0x80171acd
                0x0000000080171ace                D_80171ACE = 0x80171ace
                0x0000000080171acf                D_80171ACF = 0x80171acf
                0x0000000080171ad0                D_80171AD0 = 0x80171ad0
                0x0000000080171ad2                D_80171AD2 = 0x80171ad2
                0x0000000080171ad4                D_80171AD4 = 0x80171ad4
                0x0000000080171ad6                D_80171AD6 = 0x80171ad6
                0x0000000080171ad8                D_80171AD8 = 0x80171ad8
                0x0000000080171adc                D_80171ADC = 0x80171adc
                0x0000000080171ae0                D_80171AE0 = 0x80171ae0
                0x0000000080171ae4                D_80171AE4 = 0x80171ae4
                0x0000000080171ae8                D_80171AE8 = 0x80171ae8
                0x0000000080171b10                D_80171B10 = 0x80171b10
                0x0000000080171b14                D_80171B14 = 0x80171b14
                0x0000000080171b18                D_80171B18 = 0x80171b18
                0x0000000080171b19                D_80171B19 = 0x80171b19
                0x0000000080171b1a                D_80171B1A = 0x80171b1a
                0x0000000080171b1c                D_80171B1C = 0x80171b1c
                0x0000000080171b1e                D_80171B1E = 0x80171b1e
                0x0000000080171b20                D_80171B20 = 0x80171b20
                0x0000000080171b22                D_80171B22 = 0x80171b22
                0x0000000080171b30                D_80171B30 = 0x80171b30
                0x0000000080171c30                D_80171C30 = 0x80171c30
                0x0000000080171d30                D_80171D30 = 0x80171d30
                0x0000000080171f10                D_80171F10 = 0x80171f10
                0x00000000801720f0                D_801720F0 = 0x801720f0
                0x00000000801780f0                D_801780F0 = 0x801780f0
                0x00000000801780f4                D_801780F4 = 0x801780f4
                0x00000000801780f8                D_801780F8 = 0x801780f8
                0x00000000801780fa                D_801780FA = 0x801780fa
                0x00000000801780fc                D_801780FC = 0x801780fc
                0x00000000801780fe                D_801780FE = 0x801780fe
                0x0000000080178100                D_80178100 = 0x80178100
                0x0000000080178102                D_80178102 = 0x80178102
                0x0000000080178104                D_80178104 = 0x80178104
                0x0000000080178108                D_80178108 = 0x80178108
                0x000000008017810c                D_8017810C = 0x8017810c
                0x0000000080178110                D_80178110 = 0x80178110
                0x0000000080178114                D_80178114 = 0x80178114
                0x0000000080178118                D_80178118 = 0x80178118
                0x000000008017811c                D_8017811C = 0x8017811c
                0x0000000080178120                D_80178120 = 0x80178120
                0x0000000080178124                D_80178124 = 0x80178124
                0x0000000080178128                D_80178128 = 0x80178128
                0x0000000080178130                D_80178130 = 0x80178130
                0x0000000080178132                D_80178132 = 0x80178132
                0x0000000080178134                D_80178134 = 0x80178134
                0x0000000080178136                D_80178136 = 0x80178136
                0x0000000080178138                D_80178138 = 0x80178138
                0x000000008017813c                D_8017813C = 0x8017813c
                0x0000000080178140                D_80178140 = 0x80178140
                0x0000000080178142                D_80178142 = 0x80178142
                0x0000000080178150                D_80178150 = 0x80178150
                0x0000000080178152                D_80178152 = 0x80178152
                0x0000000080178154                D_80178154 = 0x80178154
                0x0000000080178156                D_80178156 = 0x80178156
                0x0000000080178158                D_80178158 = 0x80178158
                0x000000008017815a                D_8017815A = 0x8017815a
                0x000000008017815c                D_8017815C = 0x8017815c
                0x000000008017815e                D_8017815E = 0x8017815e
                0x0000000080178160                D_80178160 = 0x80178160
                0x0000000080178162                D_80178162 = 0x80178162
                0x0000000080178164                D_80178164 = 0x80178164
                0x0000000080178166                D_80178166 = 0x80178166
                0x0000000080178168                D_80178168 = 0x80178168
                0x0000000080178170                D_80178170 = 0x80178170
                0x0000000080178188                D_80178188 = 0x80178188
                0x00000000801781a0                D_801781A0 = 0x801781a0
                0x00000000801781a1                D_801781A1 = 0x801781a1
                0x00000000801781c0                D_801781C0 = 0x801781c0
                0x00000000801781c8                D_801781C8 = 0x801781c8
                0x00000000801781ca                D_801781CA = 0x801781ca
                0x00000000801781cc                D_801781CC = 0x801781cc
                0x00000000801781ce                D_801781CE = 0x801781ce
                0x00000000801781d0                D_801781D0 = 0x801781d0
                0x00000000801781d2                D_801781D2 = 0x801781d2
                0x00000000801781d4                D_801781D4 = 0x801781d4
                0x00000000801781dc                D_801781DC = 0x801781dc
                0x00000000801781e0                D_801781E0 = 0x801781e0
                0x00000000801781f0                D_801781F0 = 0x801781f0
                0x00000000801781f4                D_801781F4 = 0x801781f4
                0x00000000801781f8                D_801781F8 = 0x801781f8
                0x00000000801782b0                D_801782B0 = 0x801782b0
                0x00000000801782b4                D_801782B4 = 0x801782b4
                0x00000000801782b8                D_801782B8 = 0x801782b8
                0x00000000801782bc                D_801782BC = 0x801782bc
                0x00000000801782c0                D_801782C0 = 0x801782c0
                0x00000000801782c2                D_801782C2 = 0x801782c2
                0x00000000801782d8                D_801782D8 = 0x801782d8
                0x00000000801782dc                D_801782DC = 0x801782dc
                0x00000000801782de                D_801782DE = 0x801782de
                0x00000000801782e0                D_801782E0 = 0x801782e0
                0x00000000801782e2                D_801782E2 = 0x801782e2
                0x00000000801782e8                D_801782E8 = 0x801782e8
                0x00000000801783e8                D_801783E8 = 0x801783e8
                0x00000000801783ea                D_801783EA = 0x801783ea
                0x00000000801783ec                D_801783EC = 0x801783ec
                0x00000000801783ee                D_801783EE = 0x801783ee
                0x00000000801783f0                D_801783F0 = 0x801783f0
                0x00000000801783f2                D_801783F2 = 0x801783f2
                0x00000000801783f4                D_801783F4 = 0x801783f4
                0x00000000801783f6                D_801783F6 = 0x801783f6
                0x00000000801783f8                D_801783F8 = 0x801783f8
                0x0000000080178418                D_80178418 = 0x80178418
                0x0000000080178438                D_80178438 = 0x80178438
                0x000000008017843a                D_8017843A = 0x8017843a
                0x000000008017843c                D_8017843C = 0x8017843c
                0x000000008017843e                D_8017843E = 0x8017843e
                0x0000000080178440                D_80178440 = 0x80178440
                0x0000000080178442                D_80178442 = 0x80178442
                0x0000000080178450                D_80178450 = 0x80178450
                0x0000000080178454                D_80178454 = 0x80178454
                0x0000000080178460                D_80178460 = 0x80178460
                0x0000000080178470                D_80178470 = 0x80178470
                0x0000000080179a90                D_80179A90 = 0x80179a90
                0x000000008017b0b0                D_8017B0B0 = 0x8017b0b0
                0x000000008017c6d0                D_8017C6D0 = 0x8017c6d0
                0x000000008017dcf0                D_8017DCF0 = 0x8017dcf0
                0x000000008017f310                D_8017F310 = 0x8017f310
                0x0000000080180000                D_80180000 = 0x80180000
                0x0000000080180930                D_80180930 = 0x80180930
                0x0000000080180934                D_80180934 = 0x80180934
                0x0000000080180938                D_80180938 = 0x80180938
                0x0000000080180b60                D_80180B60 = 0x80180b60
                0x0000000080180b64                D_80180B64 = 0x80180b64
                0x0000000080180b68                D_80180B68 = 0x80180b68
                0x0000000080180d90                D_80180D90 = 0x80180d90
                0x0000000080180d94                D_80180D94 = 0x80180d94
                0x0000000080180d98                D_80180D98 = 0x80180d98
                0x0000000080180fc0                D_80180FC0 = 0x80180fc0
                0x0000000080180fd0                D_80180FD0 = 0x80180fd0
                0x0000000080180fd8                D_80180FD8 = 0x80180fd8
                0x0000000080182018                D_80182018 = 0x80182018
                0x0000000080182020                D_80182020 = 0x80182020
                0x0000000080182120                D_80182120 = 0x80182120
                0x0000000080182220                D_80182220 = 0x80182220
                0x00000000801822a0                D_801822A0 = 0x801822a0
                0x00000000801826a0                D_801826A0 = 0x801826a0
                0x00000000801826b0                D_801826B0 = 0x801826b0
                0x00000000801826b2                D_801826B2 = 0x801826b2
                0x00000000801826b4                D_801826B4 = 0x801826b4
                0x00000000801826b8                D_801826B8 = 0x801826b8
                0x00000000801826c0                D_801826C0 = 0x801826c0
                0x00000000801826d0                D_801826D0 = 0x801826d0
                0x0000000080182880                D_80182880 = 0x80182880
                0x0000000080183880                D_80183880 = 0x80183880
                0x0000000080183898                D_80183898 = 0x80183898
                0x00000000801838b0                D_801838B0 = 0x801838b0
                0x00000000801838b2                D_801838B2 = 0x801838b2
                0x00000000801838b4                D_801838B4 = 0x801838b4
                0x00000000801838c8                D_801838C8 = 0x801838c8
                0x00000000801838ca                D_801838CA = 0x801838ca
                0x00000000801838cc                D_801838CC = 0x801838cc
                0x00000000801838e0                D_801838E0 = 0x801838e0
                0x00000000801838f0                D_801838F0 = 0x801838f0
                0x0000000080183aa0                D_80183AA0 = 0x80183aa0
                0x0000000080184aa0                D_80184AA0 = 0x80184aa0
                0x0000000080184c50                D_80184C50 = 0x80184c50
                0x0000000080185050                D_80185050 = 0x80185050
                0x0000000080185068                D_80185068 = 0x80185068
                0x0000000080185070                D_80185070 = 0x80185070
                0x0000000080185088                D_80185088 = 0x80185088
                0x0000000080185090                D_80185090 = 0x80185090
                0x00000000801850a8                D_801850A8 = 0x801850a8
                0x00000000801850b0                D_801850B0 = 0x801850b0
                0x00000000801850b8                D_801850B8 = 0x801850b8
                0x0000000080185518                D_80185518 = 0x80185518
                0x0000000080185519                D_80185519 = 0x80185519
                0x000000008018551c                D_8018551C = 0x8018551c
                0x0000000080185520                D_80185520 = 0x80185520
                0x0000000080185530                D_80185530 = 0x80185530
                0x00000000801855f0                D_801855F0 = 0x801855f0
                0x0000000080185630                D_80185630 = 0x80185630
                0x000000008018566c                D_8018566C = 0x8018566c
                0x0000000080185670                D_80185670 = 0x80185670
                0x0000000080185671                D_80185671 = 0x80185671
                0x0000000080185678                D_80185678 = 0x80185678
                0x0000000080185698                D_80185698 = 0x80185698
                0x00000000801856b0                D_801856B0 = 0x801856b0
                0x00000000801856c0                D_801856C0 = 0x801856c0
                0x00000000801856c4                D_801856C4 = 0x801856c4
                0x00000000801856c8                D_801856C8 = 0x801856c8
                0x00000000801856cc                D_801856CC = 0x801856cc
                0x00000000801856f0                D_801856F0 = 0x801856f0
                0x00000000801856f4                D_801856F4 = 0x801856f4
                0x00000000801856f8                D_801856F8 = 0x801856f8
                0x00000000801856fc                D_801856FC = 0x801856fc
                0x0000000080185700                D_80185700 = 0x80185700
                0x0000000080185704                D_80185704 = 0x80185704
                0x0000000080185708                D_80185708 = 0x80185708
                0x000000008018570c                D_8018570C = 0x8018570c
                0x0000000080185710                D_80185710 = 0x80185710
                0x0000000080185730                D_80185730 = 0x80185730
                0x0000000080185734                D_80185734 = 0x80185734
                0x0000000080185735                D_80185735 = 0x80185735
                0x0000000080185736                D_80185736 = 0x80185736
                0x0000000080185737                D_80185737 = 0x80185737
                0x0000000080185738                D_80185738 = 0x80185738
                0x0000000080185739                D_80185739 = 0x80185739
                0x000000008018573c                D_8018573C = 0x8018573c
                0x00000000801857b0                D_801857B0 = 0x801857b0
                0x00000000801857b8                D_801857B8 = 0x801857b8
                0x00000000801857bc                D_801857BC = 0x801857bc
                0x00000000801857bd                D_801857BD = 0x801857bd
                0x00000000801857be                D_801857BE = 0x801857be
                0x00000000801857c0                D_801857C0 = 0x801857c0
                0x00000000801857c1                D_801857C1 = 0x801857c1
                0x00000000801857c4                D_801857C4 = 0x801857c4
                0x0000000080185830                D_80185830 = 0x80185830
                0x0000000080185838                D_80185838 = 0x80185838
                0x0000000080185850                D_80185850 = 0x80185850
                0x0000000080185a00                D_80185A00 = 0x80185a00
                0x0000000080185a20                D_80185A20 = 0x80185a20
                0x0000000080189a20                D_80189A20 = 0x80189a20
                0x0000000080189a40                D_80189A40 = 0x80189a40
                0x0000000080189a58                D_80189A58 = 0x80189a58
                0x0000000080189a70                D_80189A70 = 0x80189a70
                0x0000000080189a88                D_80189A88 = 0x80189a88
                0x0000000080189a8c                D_80189A8C = 0x80189a8c
                0x0000000080189a90                D_80189A90 = 0x80189a90
                0x000000008018a290                D_8018A290 = 0x8018a290
                0x000000008018a390                D_8018A390 = 0x8018a390
                0x000000008018a398                D_8018A398 = 0x8018a398
                0x000000008018a418                D_8018A418 = 0x8018a418
                0x000000008018a41c                D_8018A41C = 0x8018a41c
                0x000000008018a420                D_8018A420 = 0x8018a420
                0x000000008018a4a0                D_8018A4A0 = 0x8018a4a0
                0x000000008018a4a8                D_8018A4A8 = 0x8018a4a8
                0x000000008018a4c0                D_8018A4C0 = 0x8018a4c0
                0x000000008018a4fc                D_8018A4FC = 0x8018a4fc
                0x000000008018a550                D_8018A550 = 0x8018a550
                0x000000008018a700                D_8018A700 = 0x8018a700
                0x000000008018a710                D_8018A710 = 0x8018a710
                0x000000008018a728                D_8018A728 = 0x8018a728
                0x000000008018a72c                D_8018A72C = 0x8018a72c
                0x000000008018a730                D_8018A730 = 0x8018a730
                0x000000008018a740                D_8018A740 = 0x8018a740
                0x000000008018a744                D_8018A744 = 0x8018a744
                0x000000008018a748                D_8018A748 = 0x8018a748
                0x000000008018a74c                D_8018A74C = 0x8018a74c
                0x000000008018a750                D_8018A750 = 0x8018a750
                0x000000008018a760                D_8018A760 = 0x8018a760
                0x000000008018b760                D_8018B760 = 0x8018b760
                0x000000008018b764                D_8018B764 = 0x8018b764
                0x000000008018b768                D_8018B768 = 0x8018b768
                0x000000008018b780                D_8018B780 = 0x8018b780
                0x000000008018b798                D_8018B798 = 0x8018b798
                0x0000000080192000                D_80192000 = 0x80192000
                0x0000000080192020                D_80192020 = 0x80192020
                0x0000000080192028                D_80192028 = 0x80192028
                0x000000008019202c                D_8019202C = 0x8019202c
                0x0000000080192030                D_80192030 = 0x80192030
                0x000000008019203c                D_8019203C = 0x8019203c
                0x0000000080192060                D_80192060 = 0x80192060
                0x0000000080192064                D_80192064 = 0x80192064
                0x0000000080192068                D_80192068 = 0x80192068
                0x000000008019206c                D_8019206C = 0x8019206c
                0x0000000080192070                D_80192070 = 0x80192070
                0x000000008019b000                D_8019B000 = 0x8019b000
                0x000000008019b00c                D_8019B00C = 0x8019b00c
                0x000000008019b010                D_8019B010 = 0x8019b010
                0x000000008019b014                D_8019B014 = 0x8019b014
                0x000000008019b018                D_8019B018 = 0x8019b018
                0x000000008019b01c                D_8019B01C = 0x8019b01c
                0x00000000801a6800                D_801A6800 = 0x801a6800
                0x00000000801a6844                D_801A6844 = 0x801a6844
                0x00000000801a6848                D_801A6848 = 0x801a6848
                0x00000000801a684c                D_801A684C = 0x801a684c
                0x00000000801a6850                D_801A6850 = 0x801a6850
                0x00000000801a6854                D_801A6854 = 0x801a6854
                0x00000000801a6858                D_801A6858 = 0x801a6858
                0x00000000801a685c                D_801A685C = 0x801a685c
                0x00000000801a6860                D_801A6860 = 0x801a6860
                0x00000000801a6864                D_801A6864 = 0x801a6864
                0x00000000801a6868                D_801A6868 = 0x801a6868
                0x00000000801a686c                D_801A686C = 0x801a686c
                0x00000000801a6870                D_801A6870 = 0x801a6870
                0x00000000801a6874                D_801A6874 = 0x801a6874
                0x00000000801a6878                D_801A6878 = 0x801a6878
                0x00000000801a687c                D_801A687C = 0x801a687c
                0x00000000801a6880                D_801A6880 = 0x801a6880
                0x00000000801b0800                D_801B0800 = 0x801b0800
                0x0000000080202cce                D_80202CCE = 0x80202cce
                0x0000000080202ede                D_80202EDE = 0x80202ede
                0x0000000080211a00                D_80211A00 = 0x80211a00
                0x0000000080220ae2                D_80220AE2 = 0x80220ae2
                0x0000000080220b42                D_80220B42 = 0x80220b42
                0x00000000802450b2                D_802450B2 = 0x802450b2
                0x0000000080245ea2                D_80245EA2 = 0x80245ea2
                0x0000000080246cde                D_80246CDE = 0x80246cde
                0x0000000080247ab8                D_80247AB8 = 0x80247ab8
                0x0000000080251020                D_80251020 = 0x80251020
                0x00000000802688f8                D_802688F8 = 0x802688f8
                0x00000000802c9f70                D_802C9F70 = 0x802c9f70
                0x00000000803023b4                D_803023B4 = 0x803023b4
                0x0000000080335ed4                D_80335ED4 = 0x80335ed4
                0x0000000080362762                D_80362762 = 0x80362762
                0x0000000080372560                D_80372560 = 0x80372560
                0x0000000080380000                D_80380000 = 0x80380000
                0x0000000080380002                D_80380002 = 0x80380002
                0x0000000080380004                D_80380004 = 0x80380004
                0x00000000a0000000                D_A0000000 = 0xa0000000
                0x00000000a4040000                D_A4040000 = 0xa4040000
                0x00000000a4040004                D_A4040004 = 0xa4040004
                0x00000000a4040008                D_A4040008 = 0xa4040008
                0x00000000a404000c                D_A404000C = 0xa404000c
                0x00000000a4040010                D_A4040010 = 0xa4040010
                0x00000000a4080000                D_A4080000 = 0xa4080000
                0x00000000a4300000                D_A4300000 = 0xa4300000
                0x00000000a4300008                D_A4300008 = 0xa4300008
                0x00000000a430000c                D_A430000C = 0xa430000c
                0x00000000a4400000                D_A4400000 = 0xa4400000
                0x00000000a4400004                D_A4400004 = 0xa4400004
                0x00000000a4400008                D_A4400008 = 0xa4400008
                0x00000000a440000c                D_A440000C = 0xa440000c
                0x00000000a4400010                D_A4400010 = 0xa4400010
                0x00000000a4400014                D_A4400014 = 0xa4400014
                0x00000000a4400018                D_A4400018 = 0xa4400018
                0x00000000a440001c                D_A440001C = 0xa440001c
                0x00000000a4400020                D_A4400020 = 0xa4400020
                0x00000000a4400024                D_A4400024 = 0xa4400024
                0x00000000a4400028                D_A4400028 = 0xa4400028
                0x00000000a440002c                D_A440002C = 0xa440002c
                0x00000000a4400030                D_A4400030 = 0xa4400030
                0x00000000a4400034                D_A4400034 = 0xa4400034
                0x00000000a4500000                D_A4500000 = 0xa4500000
                0x00000000a4500004                D_A4500004 = 0xa4500004
                0x00000000a4500008                D_A4500008 = 0xa4500008
                0x00000000a450000c                D_A450000C = 0xa450000c
                0x00000000a4500010                D_A4500010 = 0xa4500010
                0x00000000a4500014                D_A4500014 = 0xa4500014
                0x00000000a4600000                D_A4600000 = 0xa4600000
                0x00000000a4600004                D_A4600004 = 0xa4600004
                0x00000000a4600008                D_A4600008 = 0xa4600008
                0x00000000a460000c                D_A460000C = 0xa460000c
                0x00000000a4600010                D_A4600010 = 0xa4600010
                0x00000000a4600014                D_A4600014 = 0xa4600014
                0x00000000a4600018                D_A4600018 = 0xa4600018
                0x00000000a460001c                D_A460001C = 0xa460001c
                0x00000000a4600020                D_A4600020 = 0xa4600020
                0x00000000a4600024                D_A4600024 = 0xa4600024
                0x00000000a4600028                D_A4600028 = 0xa4600028
                0x00000000a460002c                D_A460002C = 0xa460002c
                0x00000000a4600030                D_A4600030 = 0xa4600030
                0x00000000a4800000                D_A4800000 = 0xa4800000
                0x00000000a4800004                D_A4800004 = 0xa4800004
                0x00000000a4800010                D_A4800010 = 0xa4800010
                0x00000000a4800018                D_A4800018 = 0xa4800018
                0x00000000a5000508                D_A5000508 = 0xa5000508
                0x00000000a5000510                D_A5000510 = 0xa5000510
                0x00000000bff08000                D_BFF08000 = 0xbff08000
                0x00000000bff08004                D_BFF08004 = 0xbff08004
                0x00000000c0000000                D_C0000000 = 0xc0000000
                0x00000000c0000008                D_C0000008 = 0xc0000008
                0x00000000c000000c                D_C000000C = 0xc000000c
                0x00000000ffc0001f                D_FFC0001F = 0xffc0001f
                0x00000000800a5f6c                func_800A5F6C = 0x800a5f6c
                0x00000000800a6994                func_800A6994 = 0x800a6994
                0x00000000800aad70                func_800AAD70 = 0x800aad70
                0x00000000800ba6c8                func_800BA6C8 = 0x800ba6c8
                0x00000000800ba6e0                func_800BA6E0 = 0x800ba6e0
                0x0000000080388000                func_80388000 = 0x80388000
                0x0000000080388008                func_80388008 = 0x80388008
                0x0000000084001008                func_84001008 = 0x84001008
                0x000000008400103c                func_8400103C = 0x8400103c
                0x0000000084001064                func_84001064 = 0x84001064
                0x0000000084001008                .L84001008 = 0x84001008
                0x0000000084001780                .L84001780 = 0x84001780
                0x00000000840010d4                .L840010D4 = 0x840010d4
                0x00000000840010fc                .L840010FC = 0x840010fc
                0x0000000084001064                .L84001064 = 0x84001064
                0x00000000800ef4d0                _bssSegmentStart = 0x800ef4d0
                0x000000008018b7a0                _bssSegmentEnd = 0x8018b7a0
                0x000000000009c2d0                _bssSegmentSize = 0x9c2d0
                0x0000000080124670                __gBootStackEnd = 0x80124670
                0x0000000080126670                __IdleStackEnd = 0x80126670
                0x0000000080128670                __gMainStackEnd = 0x80128670
                0x0000000080129670                __gRmonStackEnd = 0x80129670
OUTPUT(build/mischiefmakers.elf elf32-tradbigmips)
